BL51 BANKED LINKER/LOCATER V6.22                                                        07/02/2019  17:10:49  PAGE 1


BL51 BANKED LINKER/LOCATER V6.22, INVOKED BY:
C:\KEIL\C51\BIN\BL51.EXE RA8876.obj TO sd RAMSIZE (256)


MEMORY MODEL: LARGE


INPUT MODULES INCLUDED:
  RA8876.obj (RA8876)
  C:\KEIL\C51\LIB\C51L.LIB (?C_STARTUP)
  C:\KEIL\C51\LIB\C51L.LIB (?C?COPY)
  C:\KEIL\C51\LIB\C51L.LIB (?C?CLDPTR)
  C:\KEIL\C51\LIB\C51L.LIB (?C?CLDOPTR)
  C:\KEIL\C51\LIB\C51L.LIB (?C?CSTPTR)
  C:\KEIL\C51\LIB\C51L.LIB (?C?CSTOPTR)
  C:\KEIL\C51\LIB\C51L.LIB (?C?IMUL)
  C:\KEIL\C51\LIB\C51L.LIB (?C?UIDIV)
  C:\KEIL\C51\LIB\C51L.LIB (?C?SIDIV)
  C:\KEIL\C51\LIB\C51L.LIB (?C?IILDX)
  C:\KEIL\C51\LIB\C51L.LIB (?C?ILDIX)
  C:\KEIL\C51\LIB\C51L.LIB (?C?ILDOPTR)
  C:\KEIL\C51\LIB\C51L.LIB (?C?LMUL)
  C:\KEIL\C51\LIB\C51L.LIB (?C?ULCMP)
  C:\KEIL\C51\LIB\C51L.LIB (?C?ULSHR)
  C:\KEIL\C51\LIB\C51L.LIB (?C?LSTXDATA)
  C:\KEIL\C51\LIB\C51L.LIB (?C?LSTKXDATA)
  C:\KEIL\C51\LIB\C51L.LIB (RAND)
  C:\KEIL\C51\LIB\C51L.LIB (?C_INIT)
  C:\KEIL\C51\LIB\C51L.LIB (?C?LLDXDATA)


LINK MAP OF MODULE:  sd (RA8876)


            TYPE    BASE      LENGTH    RELOCATION   SEGMENT NAME
            -----------------------------------------------------

            * * * * * * *   D A T A   M E M O R Y   * * * * * * *
            REG     0000H     0008H     ABSOLUTE     "REG BANK 0"
                    0008H     0018H                  *** GAP ***
            BIT     0020H.0   0000H.1   UNIT         ?BI?RA8876
            BIT     0020H.1   0000H.1   UNIT         _BIT_GROUP_
                    0020H.2   0000H.6                *** GAP ***
            IDATA   0021H     0001H     UNIT         ?STACK

            * * * * * * *  X D A T A   M E M O R Y  * * * * * * *
            XDATA   0000H     022AH     UNIT         ?XD?RA8876
            XDATA   022AH     011DH     UNIT         _XDATA_GROUP_
            XDATA   0347H     0009H     UNIT         ?XD?_SDWRITEBLOCK?RA8876
            XDATA   0350H     0006H     UNIT         ?XD?_LCD_CLEAR?RA8876
            XDATA   0356H     0004H     UNIT         ?XD?_GOTO_LINEAR_ADDR?RA8876
            XDATA   035AH     0004H     UNIT         ?XD?_S1_CONSTANT_COLOR_16M?RA8876
            XDATA   035EH     0004H     UNIT         ?XD?_SFI_DMA_DESTINATION_START_ADDRESS?RA8876
            XDATA   0362H     0004H     UNIT         ?XD?_SFI_DMA_TRANSFER_NUMBER?RA8876
            XDATA   0366H     0004H     UNIT         ?XD?_FOREGROUND_COLOR_16M?RA8876
            XDATA   036AH     0004H     UNIT         ?XD?_BACKGROUND_COLOR_16M?RA8876
            XDATA   036EH     0004H     UNIT         ?XD?_CGRAM_START_ADDRESS?RA8876
            XDATA   0372H     0004H     UNIT         ?XD?RAND?RAND
BL51 BANKED LINKER/LOCATER V6.22                                                      07/02/2019  17:10:49  PAGE 2


            XDATA   0376H     0002H     UNIT         ?XD?_DELAY10MS?RA8876
            XDATA   0378H     0002H     UNIT         ?XD?_SQUARE_START_XY?RA8876
            XDATA   037AH     0002H     UNIT         ?XD?_SQUARE_END_XY?RA8876
            XDATA   037CH     0002H     UNIT         ?XD?_ELLIPSE_CENTER_XY?RA8876

            * * * * * * *   C O D E   M E M O R Y   * * * * * * *
            CODE    0000H     0003H     ABSOLUTE     
            CODE    0003H     7662H     UNIT         ?CO?RA8876
            CODE    7665H     03D5H     UNIT         ?PR?PIP_DEMO?RA8876
            CODE    7A3AH     035DH     UNIT         ?PR?APP_DEMO_MULTI_FRAME_BUFFER?RA8876
            CODE    7D97H     0340H     UNIT         ?PR?GEOMETRIC?RA8876
            CODE    80D7H     0330H     UNIT         ?PR?TEXT_DEMO?RA8876
            CODE    8407H     032DH     UNIT         ?C?LIB_CODE
            CODE    8734H     02EFH     UNIT         ?PR?APP_DEMO_WAVEFORM?RA8876
            CODE    8A23H     02E2H     UNIT         ?PR?BTE_COMPARE?RA8876
            CODE    8D05H     029DH     UNIT         ?PR?APP_DEMO_SCROLLING_TEXT?RA8876
            CODE    8FA2H     0232H     UNIT         ?PR?TPTEST?RA8876
            CODE    91D4H     021AH     UNIT         ?PR?GT9271_READ_DATA?RA8876
            CODE    93EEH     0216H     UNIT         ?PR?GRAY?RA8876
            CODE    9604H     0213H     UNIT         ?PR?BTE_COLOR_EXPANSION?RA8876
            CODE    9817H     0205H     UNIT         ?C_INITSEG
            CODE    9A1CH     01E4H     UNIT         ?PR?APP_DEMO_ALPHA_BLENDING?RA8876
            CODE    9C00H     01CFH     UNIT         ?PR?APP_DEMO_SLIDE_FRAME_BUFFER?RA8876
            CODE    9DCFH     015DH     UNIT         ?PR?BTE_PATTERN_FILL?RA8876
            CODE    9F2CH     0142H     UNIT         ?PR?DISPLAY_JPG_SDCARD?RA8876
            CODE    A06EH     0116H     UNIT         ?PR?_LCD_PUTCHAR?RA8876
            CODE    A184H     00ECH     UNIT         ?PR?_DRAW_BIG_POINT?RA8876
            CODE    A270H     00E6H     UNIT         ?PR?_INTTOSTR?RA8876
            CODE    A356H     00DFH     UNIT         ?PR?DMA_DEMO?RA8876
            CODE    A435H     00C8H     UNIT         ?PR?_LCD_DISPLAYSTRING?RA8876
            CODE    A4FDH     00C6H     UNIT         ?PR?MAIN?RA8876
            CODE    A5C3H     00C1H     UNIT         ?PR?_SHOW_PICTURE?RA8876
            CODE    A684H     00C1H     UNIT         ?PR?_SHOW_PICTURE1?RA8876
            CODE    A745H     00B0H     UNIT         ?PR?_SDWRITEBLOCK?RA8876
            CODE    A7F5H     009BH     UNIT         ?PR?GRAPHIC_CURSOR_INITIAL?RA8876
            CODE    A890H     0091H     UNIT         ?PR?RA8876_INITIAL?RA8876
            CODE    A921H     008CH     UNIT         ?C_C51STARTUP
            CODE    A9ADH     008BH     UNIT         ?PR?_SDREADBLOCK?RA8876
            CODE    AA38H     0080H     UNIT         ?PR?_LCD_HORIZONTALWIDTH_VERTICALHEIGHT?RA8876
            CODE    AAB8H     007FH     UNIT         ?PR?_GT9271_RD_REG?RA8876
            CODE    AB37H     0074H     UNIT         ?PR?_LCD_CLEAR?RA8876
            CODE    ABABH     0074H     UNIT         ?PR?_CANVAS_IMAGE_START_ADDRESS?RA8876
            CODE    AC1FH     0073H     UNIT         ?PR?TOUCH_INIT?RA8876
            CODE    AC92H     0072H     UNIT         ?PR?_LINE_END_XY?RA8876
            CODE    AD04H     006EH     UNIT         ?PR?_SFI_DMA_SOURCE_START_ADDRESS?RA8876
            CODE    AD72H     006BH     UNIT         ?PR?SDINIT?RA8876
            CODE    ADDDH     0067H     UNIT         ?PR?_SFI_DMA_DESTINATION_START_ADDRESS?RA8876
            CODE    AE44H     0067H     UNIT         ?PR?_SFI_DMA_TRANSFER_NUMBER?RA8876
            CODE    AEABH     0067H     UNIT         ?PR?_CGRAM_START_ADDRESS?RA8876
            CODE    AF12H     0066H     UNIT         ?PR?_ACTIVE_WINDOW_WH?RA8876
            CODE    AF78H     0064H     UNIT         ?PR?_MAIN_IMAGE_START_ADDRESS?RA8876
            CODE    AFDCH     0064H     UNIT         ?PR?_GT9271_WR_REG?RA8876
            CODE    B040H     0061H     UNIT         ?PR?_PIP_IMAGE_START_ADDRESS?RA8876
            CODE    B0A1H     0061H     UNIT         ?PR?_BTE_S0_MEMORY_START_ADDRESS?RA8876
            CODE    B102H     0061H     UNIT         ?PR?_BTE_S1_MEMORY_START_ADDRESS?RA8876
            CODE    B163H     0061H     UNIT         ?PR?_BTE_DESTINATION_MEMORY_START_ADDRESS?RA8876
            CODE    B1C4H     005CH     UNIT         ?PR?_GOTO_LINEAR_ADDR?RA8876
BL51 BANKED LINKER/LOCATER V6.22                                                      07/02/2019  17:10:49  PAGE 3


            CODE    B220H     0050H     UNIT         ?PR?MONO_DEMO?RA8876
            CODE    B270H     004EH     UNIT         ?PR?_SFI_DMA_DESTINATION_UPPER_LEFT_CORNER?RA8876
            CODE    B2BEH     004DH     UNIT         ?PR?START_TRIANGLE?RA8876
            CODE    B30BH     004DH     UNIT         ?PR?RAND?RAND
            CODE    B358H     004CH     UNIT         ?PR?_FOREGROUND_COLOR_16M?RA8876
            CODE    B3A4H     004CH     UNIT         ?PR?_BACKGROUND_COLOR_16M?RA8876
            CODE    B3F0H     004AH     UNIT         ?PR?_GT9271_SEND_CFG?RA8876
            CODE    B43AH     0049H     UNIT         ?PR?_CIRCLE_CENTER_XY?RA8876
            CODE    B483H     0048H     UNIT         ?PR?_PIP_DISPLAY_START_XY?RA8876
            CODE    B4CBH     0048H     UNIT         ?PR?_PIP_WINDOW_IMAGE_START_XY?RA8876
            CODE    B513H     0047H     UNIT         ?PR?RA8876_PLL_INITIAL?RA8876
            CODE    B55AH     0047H     UNIT         ?PR?_LCD_HORIZONTAL_NON_DISPLAY?RA8876
            CODE    B5A1H     0043H     UNIT         ?PR?START_CIRCLE_SQUARE?RA8876
            CODE    B5E4H     0042H     UNIT         ?PR?_LINE_START_XY?RA8876
            CODE    B626H     0042H     UNIT         ?PR?_BACKGROUND_COLOR_65K?RA8876
            CODE    B668H     0041H     UNIT         ?PR?_MAIN_WINDOW_START_XY?RA8876
            CODE    B6A9H     0041H     UNIT         ?PR?_BTE_S0_WINDOW_START_XY?RA8876
            CODE    B6EAH     003DH     UNIT         ?PR?_ACTIVE_WINDOW_XY?RA8876
            CODE    B727H     003CH     UNIT         ?PR?_FOREGROUND_COLOR_65K?RA8876
            CODE    B763H     003BH     UNIT         ?PR?_LCD_SETCURSOR?RA8876
            CODE    B79EH     003BH     UNIT         ?PR?_TRIANGLE_POINT2_XY?RA8876
            CODE    B7D9H     003BH     UNIT         ?PR?_TRIANGLE_POINT3_XY?RA8876
            CODE    B814H     003BH     UNIT         ?PR?_SQUARE_END_XY?RA8876
            CODE    B84FH     003BH     UNIT         ?PR?_ELLIPSE_CENTER_XY?RA8876
            CODE    B88AH     003BH     UNIT         ?PR?_ELLIPSE_RADIUS_RXRY?RA8876
            CODE    B8C5H     003BH     UNIT         ?PR?_CIRCLE_SQUARE_RADIUS_RXRY?RA8876
            CODE    B900H     003BH     UNIT         ?PR?_BTE_DESTINATION_IMAGE_WIDTH?RA8876
            CODE    B93BH     003BH     UNIT         ?PR?_SFI_DMA_TRANSFER_WIDTH_HEIGHT?RA8876
            CODE    B976H     003AH     UNIT         ?PR?_GOTO_PIXEL_XY?RA8876
            CODE    B9B0H     0039H     UNIT         ?PR?_DELAY_MS?RA8876
            CODE    B9E9H     0039H     UNIT         ?PR?RA8876_SDRAM_INITAIL?RA8876
            CODE    BA22H     0039H     UNIT         ?PR?_TOUCH_READ_BYTE?RA8876
            CODE    BA5BH     0038H     UNIT         ?PR?START_SQUARE?RA8876
            CODE    BA93H     0038H     UNIT         ?PR?_S1_CONSTANT_COLOR_65K?RA8876
            CODE    BACBH     0036H     UNIT         ?PR?_SFI_DMA_SOURCE_WIDTH?RA8876
            CODE    BB01H     0034H     UNIT         ?PR?_CIRCLE_RADIUS_R?RA8876
            CODE    BB35H     0033H     UNIT         ?PR?START_LINE?RA8876
            CODE    BB68H     0032H     UNIT         ?PR?_BTE_WINDOW_SIZE?RA8876
            CODE    BB9AH     0031H     UNIT         ?PR?_GRAPHIC_CURSOR_XY?RA8876
            CODE    BBCBH     0031H     UNIT         ?PR?_GOTO_TEXT_XY?RA8876
            CODE    BBFCH     0030H     UNIT         ?PR?_TRIANGLE_POINT1_XY?RA8876
            CODE    BC2CH     0030H     UNIT         ?PR?_SQUARE_START_XY?RA8876
            CODE    BC5CH     0030H     UNIT         ?PR?_BTE_DESTINATION_WINDOW_START_XY?RA8876
            CODE    BC8CH     002FH     UNIT         ?PR?_LCD_HSYNC_START_POSITION?RA8876
            CODE    BCBBH     002FH     UNIT         ?PR?_LCD_HSYNC_PULSE_WIDTH?RA8876
            CODE    BCEAH     002FH     UNIT         ?PR?_BTE_S1_WINDOW_START_XY?RA8876
            CODE    BD19H     002EH     UNIT         ?PR?_BTE_ROP_CODE?RA8876
            CODE    BD47H     002DH     UNIT         ?PR?START_SQUARE_FILL?RA8876
            CODE    BD74H     002CH     UNIT         ?PR?_S1_CONSTANT_COLOR_256?RA8876
            CODE    BDA0H     002CH     UNIT         ?PR?_FOREGROUND_COLOR_256?RA8876
            CODE    BDCCH     002CH     UNIT         ?PR?_BACKGROUND_COLOR_256?RA8876
            CODE    BDF8H     002AH     UNIT         ?PR?_PIP_WINDOW_WIDTH_HEIGHT?RA8876
            CODE    BE22H     002AH     UNIT         ?PR?_S1_CONSTANT_COLOR_16M?RA8876
            CODE    BE4CH     0029H     UNIT         ?PR?_SHOW_STRING?RA8876
            CODE    BE75H     0027H     UNIT         ?PR?START_SFI_DMA?RA8876
            CODE    BE9CH     0027H     UNIT         ?PR?_SDCOMMAND?RA8876
            CODE    BEC3H     0026H     UNIT         ?PR?IIC_READBYTE?RA8876
BL51 BANKED LINKER/LOCATER V6.22                                                      07/02/2019  17:10:49  PAGE 4


            CODE    BEE9H     0023H     UNIT         ?PR?_LCD_DATAWRITE?RA8876
            CODE    BF0CH     0022H     UNIT         ?PR?_FOREGROUND_RGB?RA8876
            CODE    BF2EH     0022H     UNIT         ?PR?_BACKGROUND_RGB?RA8876
            CODE    BF50H     0021H     UNIT         ?PR?_BTE_S1_IMAGE_WIDTH?RA8876
            CODE    BF71H     0020H     UNIT         ?PR?_DELAY10MS?RA8876
            CODE    BF91H     0020H     UNIT         ?PR?_DELAY100MS?RA8876
            CODE    BFB1H     001FH     UNIT         ?PR?_LCD_SETPOINT?RA8876
            CODE    BFD0H     001FH     UNIT         ?PR?CGROM_SELECT_INTERNAL_CGROM?RA8876
            CODE    BFEFH     001EH     UNIT         ?PR?START_CIRCLE_OR_ELLIPSE?RA8876
            CODE    C00DH     001EH     UNIT         ?PR?FONT_SELECT_12X24_24X24?RA8876
            CODE    C02BH     001DH     UNIT         ?PR?_LCD_CMDWRITE?RA8876
            CODE    C048H     001CH     UNIT         ?PR?RA8876_SW_RESET?RA8876
            CODE    C064H     001CH     UNIT         ?PR?_TEXT_CURSOR_H_V?RA8876
            CODE    C080H     001BH     UNIT         ?PR?_DELAY_US?RA8876
            CODE    C09BH     001AH     UNIT         ?PR?NEXTSTEP?RA8876
            CODE    C0B5H     001AH     UNIT         ?PR?SLAVE_ACK?RA8876
            CODE    C0CFH     001AH     UNIT         ?PR?_IIC_WRITEBYTE?RA8876
            CODE    C0E9H     001AH     UNIT         ?PR?SELECT_PWM0?RA8876
            CODE    C103H     001AH     UNIT         ?PR?SELECT_PWM0_IS_CORE_CLOCK?RA8876
            CODE    C11DH     001AH     UNIT         ?PR?_SDWRITE?RA8876
            CODE    C137H     001AH     UNIT         ?PR?SDRESPONSE?RA8876
            CODE    C151H     0019H     UNIT         ?PR?_TOUCH_SEND_BYTE?RA8876
            CODE    C16AH     0018H     UNIT         ?PR?SELECT_GRAPHIC_CURSOR_2?RA8876
            CODE    C182H     0018H     UNIT         ?PR?_SET_TIMER0_COMPARE_BUFFER?RA8876
            CODE    C19AH     0018H     UNIT         ?PR?_SET_TIMER0_COUNT_BUFFER?RA8876
            CODE    C1B2H     0018H     UNIT         ?PR?_SET_TIMER1_COMPARE_BUFFER?RA8876
            CODE    C1CAH     0018H     UNIT         ?PR?_SET_TIMER1_COUNT_BUFFER?RA8876
            CODE    C1E2H     0018H     UNIT         ?PR?BTE_DESTINATION_COLOR_16BPP?RA8876
            CODE    C1FAH     0018H     UNIT         ?PR?_RA8876_I2CM_CLOCK_PRESCALE?RA8876
            CODE    C212H     0018H     UNIT         ?PR?TOUCH_START?RA8876
            CODE    C22AH     0018H     UNIT         ?PR?TOUCH_STOP?RA8876
            CODE    C242H     0017H     UNIT         ?PR?_LCD_VERTICAL_NON_DISPLAY?RA8876
            CODE    C259H     0017H     UNIT         ?PR?TOUCH_WAIT_ACK?RA8876
            CODE    C270H     0016H     UNIT         ?PR?LCD_DATAREAD?RA8876
            CODE    C286H     0016H     UNIT         ?PR?ENABLE_PLL?RA8876
            CODE    C29CH     0016H     UNIT         ?PR?_SPI_MASTER_FIFO_DATA_PUT?RA8876
            CODE    C2B2H     0016H     UNIT         ?PR?TEXT_CURSOR_INITIAL?RA8876
            CODE    C2C8H     0015H     UNIT         ?PR?CHECK_MEM_WR_FIFO_NOT_FULL?RA8876
            CODE    C2DDH     0014H     UNIT         ?PR?POWER_SAVING_STANDBY_MODE?RA8876
            CODE    C2F1H     0013H     UNIT         ?PR?_SET_PWM_PRESCALER_1_TO_256?RA8876
            CODE    C304H     0013H     UNIT         ?PR?BTE_S1_COLOR_8BPP?RA8876
            CODE    C317H     0013H     UNIT         ?PR?BTE_S1_COLOR_16BPP?RA8876
            CODE    C32AH     0013H     UNIT         ?PR?BTE_S1_COLOR_24BPP?RA8876
            CODE    C33DH     0013H     UNIT         ?PR?BTE_S1_COLOR_CONSTANT?RA8876
            CODE    C350H     0013H     UNIT         ?PR?BTE_S1_COLOR_8BIT_ALPHA?RA8876
            CODE    C363H     0013H     UNIT         ?PR?BTE_S1_COLOR_16BIT_ALPHA?RA8876
            CODE    C376H     0013H     UNIT         ?PR?GTFONT_SELECT_GT21L16TW_GT21H16T1W?RA8876
            CODE    C389H     0013H     UNIT         ?PR?GTFONT_SELECT_GT23L16U2W?RA8876
            CODE    C39CH     0013H     UNIT         ?PR?GTFONT_SELECT_GT23L24T3Y_GT23H24T3Y?RA8876
            CODE    C3AFH     0013H     UNIT         ?PR?GTFONT_SELECT_GT23L24M1Z?RA8876
            CODE    C3C2H     0013H     UNIT         ?PR?GTFONT_SELECT_GT23L32S4W_GT23H32S4W?RA8876
            CODE    C3D5H     0013H     UNIT         ?PR?GTFONT_SELECT_GT20L24F6Y?RA8876
            CODE    C3E8H     0013H     UNIT         ?PR?GTFONT_SELECT_GT21L24S1W?RA8876
            CODE    C3FBH     0013H     UNIT         ?PR?GTFONT_SELECT_GT22L16A1Y?RA8876
            CODE    C40EH     0013H     UNIT         ?PR?SDREAD?RA8876
            CODE    C421H     0012H     UNIT         ?PR?RA8876_HW_RESET?RA8876
            CODE    C433H     0012H     UNIT         ?PR?_MAIN_IMAGE_WIDTH?RA8876
BL51 BANKED LINKER/LOCATER V6.22                                                      07/02/2019  17:10:49  PAGE 5


            CODE    C445H     0012H     UNIT         ?PR?_PIP_IMAGE_WIDTH?RA8876
            CODE    C457H     0012H     UNIT         ?PR?_CANVAS_IMAGE_WIDTH?RA8876
            CODE    C469H     0012H     UNIT         ?PR?_BTE_OPERATION_CODE?RA8876
            CODE    C47BH     0012H     UNIT         ?PR?_BTE_S0_IMAGE_WIDTH?RA8876
            CODE    C48DH     0012H     UNIT         ?PR?TX_FIFO_EMPTY_FLAG?RA8876
            CODE    C49FH     0012H     UNIT         ?PR?TX_FIFO_FULL_FLAG?RA8876
            CODE    C4B1H     0012H     UNIT         ?PR?RX_FIFO_EMPTY_FLAG?RA8876
            CODE    C4C3H     0012H     UNIT         ?PR?RX_FIFO_FULL_FLAG?RA8876
            CODE    C4D5H     0012H     UNIT         ?PR?OVFI_FLAG?RA8876
            CODE    C4E7H     0012H     UNIT         ?PR?EMTI_FLAG?RA8876
            CODE    C4F9H     0012H     UNIT         ?PR?RA8876_I2CM_CHECK_SLAVE_ACK?RA8876
            CODE    C50BH     0012H     UNIT         ?PR?RA8876_I2CM_BUS_BUSY?RA8876
            CODE    C51DH     0012H     UNIT         ?PR?RA8876_I2CM_TRANSMIT_PROGRESS?RA8876
            CODE    C52FH     0012H     UNIT         ?PR?TOUCH_NACK?RA8876
            CODE    C541H     0011H     UNIT         ?PR?LCD_STATUSREAD?RA8876
            CODE    C552H     0011H     UNIT         ?PR?TFT_24BIT?RA8876
            CODE    C563H     0011H     UNIT         ?PR?TFT_18BIT?RA8876
            CODE    C574H     0011H     UNIT         ?PR?TFT_16BIT?RA8876
            CODE    C585H     0011H     UNIT         ?PR?TFT_LVDS?RA8876
            CODE    C596H     0011H     UNIT         ?PR?RGB_8B_8BPP?RA8876
            CODE    C5A7H     0011H     UNIT         ?PR?RGB_8B_16BPP?RA8876
            CODE    C5B8H     0011H     UNIT         ?PR?RGB_8B_24BPP?RA8876
            CODE    C5C9H     0011H     UNIT         ?PR?RGB_16B_8BPP?RA8876
            CODE    C5DAH     0011H     UNIT         ?PR?RGB_16B_16BPP?RA8876
            CODE    C5EBH     0011H     UNIT         ?PR?RGB_16B_24BPP_MODE1?RA8876
            CODE    C5FCH     0011H     UNIT         ?PR?RGB_16B_24BPP_MODE2?RA8876
            CODE    C60DH     0011H     UNIT         ?PR?MEMREAD_LEFT_RIGHT_TOP_DOWN?RA8876
            CODE    C61EH     0011H     UNIT         ?PR?MEMREAD_RIGHT_LEFT_TOP_DOWN?RA8876
            CODE    C62FH     0011H     UNIT         ?PR?MEMREAD_TOP_DOWN_LEFT_RIGHT?RA8876
            CODE    C640H     0011H     UNIT         ?PR?MEMREAD_DOWN_TOP_LEFT_RIGHT?RA8876
            CODE    C651H     0011H     UNIT         ?PR?MEMWRITE_LEFT_RIGHT_TOP_DOWN?RA8876
            CODE    C662H     0011H     UNIT         ?PR?MEMWRITE_RIGHT_LEFT_TOP_DOWN?RA8876
            CODE    C673H     0011H     UNIT         ?PR?MEMWRITE_TOP_DOWN_LEFT_RIGHT?RA8876
            CODE    C684H     0011H     UNIT         ?PR?MEMWRITE_DOWN_TOP_LEFT_RIGHT?RA8876
            CODE    C695H     0011H     UNIT         ?PR?EXTINTERRUPT_INPUT_LOW_LEVEL_TRIGGER?RA8876
            CODE    C6A6H     0011H     UNIT         ?PR?EXTINTERRUPT_INPUT_HIGH_LEVEL_TRIGGER?RA8876
            CODE    C6B7H     0011H     UNIT         ?PR?EXTINTERRUPT_INPUT_FALLING_EDGE_TRIGGER?RA8876
            CODE    C6C8H     0011H     UNIT         ?PR?EXTINTERRUPT_INPUT_RISING_EDGE_TRIGGER?RA8876
            CODE    C6D9H     0011H     UNIT         ?PR?MEMORY_SELECT_SDRAM?RA8876
            CODE    C6EAH     0011H     UNIT         ?PR?MEMORY_SELECT_GRAPHIC_CURSOR_RAM?RA8876
            CODE    C6FBH     0011H     UNIT         ?PR?MEMORY_SELECT_COLOR_PALETTE_RAM?RA8876
            CODE    C70CH     0011H     UNIT         ?PR?SELECT_MAIN_WINDOW_8BPP?RA8876
            CODE    C71DH     0011H     UNIT         ?PR?SELECT_MAIN_WINDOW_16BPP?RA8876
            CODE    C72EH     0011H     UNIT         ?PR?SELECT_PIP2_WINDOW_8BPP?RA8876
            CODE    C73FH     0011H     UNIT         ?PR?SELECT_PIP2_WINDOW_16BPP?RA8876
            CODE    C750H     0011H     UNIT         ?PR?SELECT_PIP2_WINDOW_24BPP?RA8876
            CODE    C761H     0011H     UNIT         ?PR?SELECT_PIP1_WINDOW_8BPP?RA8876
            CODE    C772H     0011H     UNIT         ?PR?SELECT_PIP1_WINDOW_16BPP?RA8876
            CODE    C783H     0011H     UNIT         ?PR?SELECT_PIP1_WINDOW_24BPP?RA8876
            CODE    C794H     0011H     UNIT         ?PR?SELECT_GRAPHIC_CURSOR_1?RA8876
            CODE    C7A5H     0011H     UNIT         ?PR?SELECT_GRAPHIC_CURSOR_3?RA8876
            CODE    C7B6H     0011H     UNIT         ?PR?SELECT_GRAPHIC_CURSOR_4?RA8876
            CODE    C7C7H     0011H     UNIT         ?PR?MEMORY_8BPP_MODE?RA8876
            CODE    C7D8H     0011H     UNIT         ?PR?MEMORY_16BPP_MODE?RA8876
            CODE    C7E9H     0011H     UNIT         ?PR?MEMORY_24BPP_MODE?RA8876
            CODE    C7FAH     0011H     UNIT         ?PR?SELECT_PWM1_CLOCK_DIVIDED_BY_1?RA8876
            CODE    C80BH     0011H     UNIT         ?PR?SELECT_PWM1_CLOCK_DIVIDED_BY_2?RA8876
BL51 BANKED LINKER/LOCATER V6.22                                                      07/02/2019  17:10:49  PAGE 6


            CODE    C81CH     0011H     UNIT         ?PR?SELECT_PWM1_CLOCK_DIVIDED_BY_4?RA8876
            CODE    C82DH     0011H     UNIT         ?PR?SELECT_PWM1_CLOCK_DIVIDED_BY_8?RA8876
            CODE    C83EH     0011H     UNIT         ?PR?SELECT_PWM0_CLOCK_DIVIDED_BY_1?RA8876
            CODE    C84FH     0011H     UNIT         ?PR?SELECT_PWM0_CLOCK_DIVIDED_BY_2?RA8876
            CODE    C860H     0011H     UNIT         ?PR?SELECT_PWM0_CLOCK_DIVIDED_BY_4?RA8876
            CODE    C871H     0011H     UNIT         ?PR?SELECT_PWM0_CLOCK_DIVIDED_BY_8?RA8876
            CODE    C882H     0011H     UNIT         ?PR?SELECT_PWM1?RA8876
            CODE    C893H     0011H     UNIT         ?PR?SELECT_PWM1_IS_OSC_CLOCK?RA8876
            CODE    C8A4H     0011H     UNIT         ?PR?BTE_S0_COLOR_8BPP?RA8876
            CODE    C8B5H     0011H     UNIT         ?PR?BTE_S0_COLOR_16BPP?RA8876
            CODE    C8C6H     0011H     UNIT         ?PR?BTE_DESTINATION_COLOR_8BPP?RA8876
            CODE    C8D7H     0011H     UNIT         ?PR?SELECT_SFI_8_DUMMYREAD?RA8876
            CODE    C8E8H     0011H     UNIT         ?PR?SELECT_SFI_16_DUMMYREAD?RA8876
            CODE    C8F9H     0011H     UNIT         ?PR?SELECT_SFI_DUAL_MODE0?RA8876
            CODE    C90AH     0011H     UNIT         ?PR?SPI_MASTER_FIFO_DATA_GET?RA8876
            CODE    C91BH     0011H     UNIT         ?PR?FONT_SELECT_USERDEFINE_MODE?RA8876
            CODE    C92CH     0011H     UNIT         ?PR?CGROM_SELECT_GENITOP_FONTROM?RA8876
            CODE    C93DH     0011H     UNIT         ?PR?FONT_SELECT_8X16_16X16?RA8876
            CODE    C94EH     0011H     UNIT         ?PR?FONT_SELECT_16X32_32X32?RA8876
            CODE    C95FH     0011H     UNIT         ?PR?INTERNAL_CGROM_SELECT_ISOIEC8859_1?RA8876
            CODE    C970H     0011H     UNIT         ?PR?INTERNAL_CGROM_SELECT_ISOIEC8859_2?RA8876
            CODE    C981H     0011H     UNIT         ?PR?INTERNAL_CGROM_SELECT_ISOIEC8859_3?RA8876
            CODE    C992H     0011H     UNIT         ?PR?INTERNAL_CGROM_SELECT_ISOIEC8859_4?RA8876
            CODE    C9A3H     0011H     UNIT         ?PR?FONT_WIDTH_X1?RA8876
            CODE    C9B4H     0011H     UNIT         ?PR?FONT_WIDTH_X2?RA8876
            CODE    C9C5H     0011H     UNIT         ?PR?FONT_WIDTH_X3?RA8876
            CODE    C9D6H     0011H     UNIT         ?PR?FONT_WIDTH_X4?RA8876
            CODE    C9E7H     0011H     UNIT         ?PR?FONT_HEIGHT_X1?RA8876
            CODE    C9F8H     0011H     UNIT         ?PR?FONT_HEIGHT_X2?RA8876
            CODE    CA09H     0011H     UNIT         ?PR?FONT_HEIGHT_X3?RA8876
            CODE    CA1AH     0011H     UNIT         ?PR?FONT_HEIGHT_X4?RA8876
            CODE    CA2BH     0010H     UNIT         ?PR?POWER_SAVING_STATUS?RA8876
            CODE    CA3BH     000FH     UNIT         ?PR?_LCD_REGISTERWRITE?RA8876
            CODE    CA4AH     000FH     UNIT         ?PR?RA8876_SLEEP?RA8876
            CODE    CA59H     000FH     UNIT         ?PR?RA8876_WAKEUP?RA8876
            CODE    CA68H     000FH     UNIT         ?PR?RA8876_I2CM_ENABLE?RA8876
            CODE    CA77H     000FH     UNIT         ?PR?RA8876_I2CM_DISABLE?RA8876
            CODE    CA86H     000FH     UNIT         ?PR?ENABLE_SFLASH_SPI?RA8876
            CODE    CA95H     000FH     UNIT         ?PR?DISABLE_SFLASH_SPI?RA8876
            CODE    CAA4H     000FH     UNIT         ?PR?HOST_BUS_8BIT?RA8876
            CODE    CAB3H     000FH     UNIT         ?PR?HOST_BUS_16BIT?RA8876
            CODE    CAC2H     000FH     UNIT         ?PR?INTERRUPT_ACTIVE_LOW?RA8876
            CODE    CAD1H     000FH     UNIT         ?PR?INTERRUPT_ACTIVE_HIGH?RA8876
            CODE    CAE0H     000FH     UNIT         ?PR?EXTINTERRUPT_DEBOUNCE?RA8876
            CODE    CAEFH     000FH     UNIT         ?PR?EXTINTERRUPT_NODEBOUNCE?RA8876
            CODE    CAFEH     000FH     UNIT         ?PR?GRAPHIC_MODE?RA8876
            CODE    CB0DH     000FH     UNIT         ?PR?TEXT_MODE?RA8876
            CODE    CB1CH     000FH     UNIT         ?PR?ENABLE_RESUME_INTERRUPT?RA8876
            CODE    CB2BH     000FH     UNIT         ?PR?DISABLE_RESUME_INTERRUPT?RA8876
            CODE    CB3AH     000FH     UNIT         ?PR?ENABLE_EXTINTERRUPT_INPUT?RA8876
            CODE    CB49H     000FH     UNIT         ?PR?DISABLE_EXTINTERRUPT_INPUT?RA8876
            CODE    CB58H     000FH     UNIT         ?PR?ENABLE_I2CM_INTERRUPT?RA8876
            CODE    CB67H     000FH     UNIT         ?PR?DISABLE_I2CM_INTERRUPT?RA8876
            CODE    CB76H     000FH     UNIT         ?PR?ENABLE_VSYNC_INTERRUPT?RA8876
            CODE    CB85H     000FH     UNIT         ?PR?DISABLE_VSYNC_INTERRUPT?RA8876
            CODE    CB94H     000FH     UNIT         ?PR?ENABLE_DMA_DRAW_BTE_INTERRUPT?RA8876
            CODE    CBA3H     000FH     UNIT         ?PR?DISABLE_DMA_DRAW_BTE_INTERRUPT?RA8876
BL51 BANKED LINKER/LOCATER V6.22                                                      07/02/2019  17:10:49  PAGE 7


            CODE    CBB2H     000FH     UNIT         ?PR?ENABLE_PWM1_INTERRUPT?RA8876
            CODE    CBC1H     000FH     UNIT         ?PR?DISABLE_PWM1_INTERRUPT?RA8876
            CODE    CBD0H     000FH     UNIT         ?PR?ENABLE_PWM0_INTERRUPT?RA8876
            CODE    CBDFH     000FH     UNIT         ?PR?DISABLE_PWM0_INTERRUPT?RA8876
            CODE    CBEEH     000FH     UNIT         ?PR?CLEAR_RESUME_INTERRUPT_FLAG?RA8876
            CODE    CBFDH     000FH     UNIT         ?PR?CLEAR_EXTINTERRUPT_INPUT_FLAG?RA8876
            CODE    CC0CH     000FH     UNIT         ?PR?CLEAR_I2CM_INTERRUPT_FLAG?RA8876
            CODE    CC1BH     000FH     UNIT         ?PR?CLEAR_VSYNC_INTERRUPT_FLAG?RA8876
            CODE    CC2AH     000FH     UNIT         ?PR?CLEAR_DMA_DRAW_BTE_INTERRUPT_FLAG?RA8876
            CODE    CC39H     000FH     UNIT         ?PR?CLEAR_PWM1_INTERRUPT_FLAG?RA8876
            CODE    CC48H     000FH     UNIT         ?PR?CLEAR_PWM0_INTERRUPT_FLAG?RA8876
            CODE    CC57H     000FH     UNIT         ?PR?MASK_RESUME_INTERRUPT_FLAG?RA8876
            CODE    CC66H     000FH     UNIT         ?PR?MASK_EXTINTERRUPT_INPUT_FLAG?RA8876
            CODE    CC75H     000FH     UNIT         ?PR?MASK_I2CM_INTERRUPT_FLAG?RA8876
            CODE    CC84H     000FH     UNIT         ?PR?MASK_VSYNC_INTERRUPT_FLAG?RA8876
            CODE    CC93H     000FH     UNIT         ?PR?MASK_DMA_DRAW_BTE_INTERRUPT_FLAG?RA8876
            CODE    CCA2H     000FH     UNIT         ?PR?MASK_PWM1_INTERRUPT_FLAG?RA8876
            CODE    CCB1H     000FH     UNIT         ?PR?MASK_PWM0_INTERRUPT_FLAG?RA8876
            CODE    CCC0H     000FH     UNIT         ?PR?ENABLE_RESUME_INTERRUPT_FLAG?RA8876
            CODE    CCCFH     000FH     UNIT         ?PR?ENABLE_EXTINTERRUPT_INPUR_FLAG?RA8876
            CODE    CCDEH     000FH     UNIT         ?PR?ENABLE_I2CM_INTERRUPT_FLAG?RA8876
            CODE    CCEDH     000FH     UNIT         ?PR?ENABLE_VSYNC_INTERRUPT_FLAG?RA8876
            CODE    CCFCH     000FH     UNIT         ?PR?ENABLE_DMA_DRAW_BTE_INTERRUPT_FLAG?RA8876
            CODE    CD0BH     000FH     UNIT         ?PR?ENABLE_PWM1_INTERRUPT_FLAG?RA8876
            CODE    CD1AH     000FH     UNIT         ?PR?ENABLE_PWM0_INTERRUPT_FLAG?RA8876
            CODE    CD29H     000FH     UNIT         ?PR?ENABLE_XDB15_8_PULLUP?RA8876
            CODE    CD38H     000FH     UNIT         ?PR?DISABLE_XDB15_8_PULLUP?RA8876
            CODE    CD47H     000FH     UNIT         ?PR?DISABLE_XDB7_0_PULLUP?RA8876
            CODE    CD56H     000FH     UNIT         ?PR?ENABLE_PIP1?RA8876
            CODE    CD65H     000FH     UNIT         ?PR?DISABLE_PIP1?RA8876
            CODE    CD74H     000FH     UNIT         ?PR?ENABLE_PIP2?RA8876
            CODE    CD83H     000FH     UNIT         ?PR?DISABLE_PIP2?RA8876
            CODE    CD92H     000FH     UNIT         ?PR?SELECT_PIP1_PARAMETER?RA8876
            CODE    CDA1H     000FH     UNIT         ?PR?SELECT_PIP2_PARAMETER?RA8876
            CODE    CDB0H     000FH     UNIT         ?PR?SELECT_MAIN_WINDOW_24BPP?RA8876
            CODE    CDBFH     000FH     UNIT         ?PR?HSYNC_LOW_ACTIVE?RA8876
            CODE    CDCEH     000FH     UNIT         ?PR?HSYNC_HIGH_ACTIVE?RA8876
            CODE    CDDDH     000FH     UNIT         ?PR?VSYNC_LOW_ACTIVE?RA8876
            CODE    CDECH     000FH     UNIT         ?PR?VSYNC_HIGH_ACTIVE?RA8876
            CODE    CDFBH     000FH     UNIT         ?PR?DE_LOW_ACTIVE?RA8876
            CODE    CE0AH     000FH     UNIT         ?PR?DE_HIGH_ACTIVE?RA8876
            CODE    CE19H     000FH     UNIT         ?PR?IDLE_DE_LOW?RA8876
            CODE    CE28H     000FH     UNIT         ?PR?IDLE_DE_HIGH?RA8876
            CODE    CE37H     000FH     UNIT         ?PR?IDLE_PCLK_LOW?RA8876
            CODE    CE46H     000FH     UNIT         ?PR?IDLE_PCLK_HIGH?RA8876
            CODE    CE55H     000FH     UNIT         ?PR?IDLE_PDAT_LOW?RA8876
            CODE    CE64H     000FH     UNIT         ?PR?IDLE_PDAT_HIGH?RA8876
            CODE    CE73H     000FH     UNIT         ?PR?IDLE_HSYNC_LOW?RA8876
            CODE    CE82H     000FH     UNIT         ?PR?IDLE_HSYNC_HIGH?RA8876
            CODE    CE91H     000FH     UNIT         ?PR?IDLE_VSYNC_LOW?RA8876
            CODE    CEA0H     000FH     UNIT         ?PR?IDLE_VSYNC_HIGH?RA8876
            CODE    CEAFH     000FH     UNIT         ?PR?ENABLE_GRAPHIC_CURSOR?RA8876
            CODE    CEBEH     000FH     UNIT         ?PR?DISABLE_GRAPHIC_CURSOR?RA8876
            CODE    CECDH     000FH     UNIT         ?PR?ENABLE_TEXT_CURSOR?RA8876
            CODE    CEDCH     000FH     UNIT         ?PR?DISABLE_TEXT_CURSOR?RA8876
            CODE    CEEBH     000FH     UNIT         ?PR?ENABLE_TEXT_CURSOR_BLINKING?RA8876
            CODE    CEFAH     000FH     UNIT         ?PR?DISABLE_TEXT_CURSOR_BLINKING?RA8876
BL51 BANKED LINKER/LOCATER V6.22                                                      07/02/2019  17:10:49  PAGE 8


            CODE    CF09H     000FH     UNIT         ?PR?SELECT_WRITE_DATA_POSITION?RA8876
            CODE    CF18H     000FH     UNIT         ?PR?SELECT_READ_DATA_POSITION?RA8876
            CODE    CF27H     000FH     UNIT         ?PR?MEMORY_XY_MODE?RA8876
            CODE    CF36H     000FH     UNIT         ?PR?MEMORY_LINEAR_MODE?RA8876
            CODE    CF45H     000FH     UNIT         ?PR?SELECT_PWM1_IS_ERRORFLAG?RA8876
            CODE    CF54H     000FH     UNIT         ?PR?SELECT_PWM0_IS_GPIO_C7?RA8876
            CODE    CF63H     000FH     UNIT         ?PR?ENABLE_PWM1_INVERTER?RA8876
            CODE    CF72H     000FH     UNIT         ?PR?DISABLE_PWM1_INVERTER?RA8876
            CODE    CF81H     000FH     UNIT         ?PR?AUTO_RELOAD_PWM1?RA8876
            CODE    CF90H     000FH     UNIT         ?PR?ONE_SHOT_PWM1?RA8876
            CODE    CF9FH     000FH     UNIT         ?PR?START_PWM1?RA8876
            CODE    CFAEH     000FH     UNIT         ?PR?STOP_PWM1?RA8876
            CODE    CFBDH     000FH     UNIT         ?PR?ENABLE_PWM0_DEAD_ZONE?RA8876
            CODE    CFCCH     000FH     UNIT         ?PR?DISABLE_PWM0_DEAD_ZONE?RA8876
            CODE    CFDBH     000FH     UNIT         ?PR?ENABLE_PWM0_INVERTER?RA8876
            CODE    CFEAH     000FH     UNIT         ?PR?DISABLE_PWM0_INVERTER?RA8876
            CODE    CFF9H     000FH     UNIT         ?PR?AUTO_RELOAD_PWM0?RA8876
            CODE    D008H     000FH     UNIT         ?PR?ONE_SHOT_PWM0?RA8876
            CODE    D017H     000FH     UNIT         ?PR?START_PWM0?RA8876
            CODE    D026H     000FH     UNIT         ?PR?STOP_PWM0?RA8876
            CODE    D035H     000FH     UNIT         ?PR?BTE_ENABLE?RA8876
            CODE    D044H     000FH     UNIT         ?PR?BTE_DISABLE?RA8876
            CODE    D053H     000FH     UNIT         ?PR?PATTERN_FORMAT_8X8?RA8876
            CODE    D062H     000FH     UNIT         ?PR?PATTERN_FORMAT_16X16?RA8876
            CODE    D071H     000FH     UNIT         ?PR?BTE_S0_COLOR_24BPP?RA8876
            CODE    D080H     000FH     UNIT         ?PR?BTE_DESTINATION_COLOR_24BPP?RA8876
            CODE    D08FH     000FH     UNIT         ?PR?SELECT_SFI_0?RA8876
            CODE    D09EH     000FH     UNIT         ?PR?SELECT_SFI_1?RA8876
            CODE    D0ADH     000FH     UNIT         ?PR?SELECT_SFI_FONT_MODE?RA8876
            CODE    D0BCH     000FH     UNIT         ?PR?SELECT_SFI_DMA_MODE?RA8876
            CODE    D0CBH     000FH     UNIT         ?PR?SELECT_SFI_24BIT_ADDRESS?RA8876
            CODE    D0DAH     000FH     UNIT         ?PR?SELECT_SFI_32BIT_ADDRESS?RA8876
            CODE    D0E9H     000FH     UNIT         ?PR?SELECT_SFI_WAVEFORM_MODE_0?RA8876
            CODE    D0F8H     000FH     UNIT         ?PR?SELECT_SFI_WAVEFORM_MODE_3?RA8876
            CODE    D107H     000FH     UNIT         ?PR?SELECT_SFI_0_DUMMYREAD?RA8876
            CODE    D116H     000FH     UNIT         ?PR?SELECT_SFI_24_DUMMYREAD?RA8876
            CODE    D125H     000FH     UNIT         ?PR?SELECT_SFI_SINGLE_MODE?RA8876
            CODE    D134H     000FH     UNIT         ?PR?SELECT_SFI_DUAL_MODE1?RA8876
            CODE    D143H     000FH     UNIT         ?PR?MASK_SPI_MASTER_INTERRUPT_FLAG?RA8876
            CODE    D152H     000FH     UNIT         ?PR?SELECT_NSS_DRIVE_ON_XNSFCS0?RA8876
            CODE    D161H     000FH     UNIT         ?PR?SELECT_NSS_DRIVE_ON_XNSFCS1?RA8876
            CODE    D170H     000FH     UNIT         ?PR?NSS_INACTIVE?RA8876
            CODE    D17FH     000FH     UNIT         ?PR?NSS_ACTIVE?RA8876
            CODE    D18EH     000FH     UNIT         ?PR?OVFIRQEN_ENABLE?RA8876
            CODE    D19DH     000FH     UNIT         ?PR?EMTIRQEN_ENABLE?RA8876
            CODE    D1ACH     000FH     UNIT         ?PR?RESET_CPOL?RA8876
            CODE    D1BBH     000FH     UNIT         ?PR?SET_CPOL?RA8876
            CODE    D1CAH     000FH     UNIT         ?PR?RESET_CPHA?RA8876
            CODE    D1D9H     000FH     UNIT         ?PR?SET_CPHA?RA8876
            CODE    D1E8H     000FH     UNIT         ?PR?CLEAR_OVFI_FLAG?RA8876
            CODE    D1F7H     000FH     UNIT         ?PR?CLEAR_EMTI_FLAG?RA8876
            CODE    D206H     000FH     UNIT         ?PR?ENABLE_FONT_ALIGNMENT?RA8876
            CODE    D215H     000FH     UNIT         ?PR?DISABLE_FONT_ALIGNMENT?RA8876
            CODE    D224H     000FH     UNIT         ?PR?FONT_BACKGROUND_SELECT_TRANSPARENCY?RA8876
            CODE    D233H     000FH     UNIT         ?PR?FONT_BACKGROUND_SELECT_COLOR?RA8876
            CODE    D242H     000FH     UNIT         ?PR?FONT_0_DEGREE?RA8876
            CODE    D251H     000FH     UNIT         ?PR?FONT_90_DEGREE?RA8876
BL51 BANKED LINKER/LOCATER V6.22                                                      07/02/2019  17:10:49  PAGE 9


            CODE    D260H     000EH     UNIT         ?PR?PDATA_SET_GBR?RA8876
            CODE    D26EH     000EH     UNIT         ?PR?PDATA_SET_BGR?RA8876
            CODE    D27CH     000EH     UNIT         ?PR?_SET_GRAPHIC_CURSOR_COLOR_2?RA8876
            CODE    D28AH     000DH     UNIT         ?PR?START?RA8876
            CODE    D297H     000DH     UNIT         ?PR?_LCD_VSYNC_START_POSITION?RA8876
            CODE    D2A4H     000DH     UNIT         ?PR?_LCD_VSYNC_PULSE_WIDTH?RA8876
            CODE    D2B1H     000DH     UNIT         ?PR?START_TRIANGLE_FILL?RA8876
            CODE    D2BEH     000DH     UNIT         ?PR?START_CIRCLE_OR_ELLIPSE_FILL?RA8876
            CODE    D2CBH     000DH     UNIT         ?PR?START_LEFT_DOWN_CURVE?RA8876
            CODE    D2D8H     000DH     UNIT         ?PR?START_LEFT_UP_CURVE?RA8876
            CODE    D2E5H     000DH     UNIT         ?PR?START_RIGHT_UP_CURVE?RA8876
            CODE    D2F2H     000DH     UNIT         ?PR?START_RIGHT_DOWN_CURVE?RA8876
            CODE    D2FFH     000DH     UNIT         ?PR?START_LEFT_DOWN_CURVE_FILL?RA8876
            CODE    D30CH     000DH     UNIT         ?PR?START_LEFT_UP_CURVE_FILL?RA8876
            CODE    D319H     000DH     UNIT         ?PR?START_RIGHT_UP_CURVE_FILL?RA8876
            CODE    D326H     000DH     UNIT         ?PR?START_RIGHT_DOWN_CURVE_FILL?RA8876
            CODE    D333H     000DH     UNIT         ?PR?START_CIRCLE_SQUARE_FILL?RA8876
            CODE    D340H     000DH     UNIT         ?PR?CHECK_BUSY_SFI_DMA?RA8876
            CODE    D34DH     000DH     UNIT         ?PR?RA8876_I2CM_ARBITRATION?RA8876
            CODE    D35AH     000CH     UNIT         ?PR?MASTER_ACK?RA8876
            CODE    D366H     000CH     UNIT         ?PR?PDATA_SET_RBG?RA8876
            CODE    D372H     000CH     UNIT         ?PR?PDATA_SET_GRB?RA8876
            CODE    D37EH     000CH     UNIT         ?PR?PDATA_SET_BRG?RA8876
            CODE    D38AH     000CH     UNIT         ?PR?_BLINKING_TIME_FRAMES?RA8876
            CODE    D396H     000CH     UNIT         ?PR?_SET_TIMER0_DEAD_ZONE_LENGTH?RA8876
            CODE    D3A2H     000CH     UNIT         ?PR?_BTE_ALPHA_BLENDING_EFFECT?RA8876
            CODE    D3AEH     000CH     UNIT         ?PR?_SPI_CLOCK_PERIOD?RA8876
            CODE    D3BAH     000CH     UNIT         ?PR?_SET_GTFONT_DECODER?RA8876
            CODE    D3C6H     000CH     UNIT         ?PR?_FONT_LINE_DISTANCE?RA8876
            CODE    D3D2H     000CH     UNIT         ?PR?_SET_FONT_TO_FONT_WIDTH?RA8876
            CODE    D3DEH     000CH     UNIT         ?PR?_RA8876_I2CM_TRANSMIT_DATA?RA8876
            CODE    D3EAH     000CH     UNIT         ?PR?_SET_GPIO_A_IN_OUT?RA8876
            CODE    D3F6H     000CH     UNIT         ?PR?_WRITE_GPIO_A_7_0?RA8876
            CODE    D402H     000CH     UNIT         ?PR?_WRITE_GPIO_B_7_4?RA8876
            CODE    D40EH     000CH     UNIT         ?PR?_SET_GPIO_C_IN_OUT?RA8876
            CODE    D41AH     000CH     UNIT         ?PR?_WRITE_GPIO_C_7_0?RA8876
            CODE    D426H     000CH     UNIT         ?PR?_SET_GPIO_D_IN_OUT?RA8876
            CODE    D432H     000CH     UNIT         ?PR?_WRITE_GPIO_D_7_0?RA8876
            CODE    D43EH     000CH     UNIT         ?PR?_SET_GPIO_E_IN_OUT?RA8876
            CODE    D44AH     000CH     UNIT         ?PR?_WRITE_GPIO_E_7_0?RA8876
            CODE    D456H     000CH     UNIT         ?PR?_SET_GPIO_F_IN_OUT?RA8876
            CODE    D462H     000CH     UNIT         ?PR?_WRITE_GPIO_F_7_0?RA8876
            CODE    D46EH     000CH     UNIT         ?PR?TOUCH_ACK?RA8876
            CODE    D47AH     000AH     UNIT         ?PR?STOP?RA8876
            CODE    D484H     000AH     UNIT         ?PR?PCLK_RISING?RA8876
            CODE    D48EH     000AH     UNIT         ?PR?PCLK_FALLING?RA8876
            CODE    D498H     000AH     UNIT         ?PR?DISPLAY_ON?RA8876
            CODE    D4A2H     000AH     UNIT         ?PR?DISPLAY_OFF?RA8876
            CODE    D4ACH     000AH     UNIT         ?PR?COLOR_BAR_ON?RA8876
            CODE    D4B6H     000AH     UNIT         ?PR?COLOR_BAR_OFF?RA8876
            CODE    D4C0H     000AH     UNIT         ?PR?HSCAN_L_TO_R?RA8876
            CODE    D4CAH     000AH     UNIT         ?PR?HSCAN_R_TO_L?RA8876
            CODE    D4D4H     000AH     UNIT         ?PR?VSCAN_T_TO_B?RA8876
            CODE    D4DEH     000AH     UNIT         ?PR?VSCAN_B_TO_T?RA8876
            CODE    D4E8H     000AH     UNIT         ?PR?PDATA_SET_RGB?RA8876
            CODE    D4F2H     000AH     UNIT         ?PR?PDATA_IDLE_STATE?RA8876
            CODE    D4FCH     000AH     UNIT         ?PR?POWER_NORMAL_MODE?RA8876
BL51 BANKED LINKER/LOCATER V6.22                                                      07/02/2019  17:10:49  PAGE 10


            CODE    D506H     000AH     UNIT         ?PR?POWER_SAVING_SUSPEND_MODE?RA8876
            CODE    D510H     000AH     UNIT         ?PR?POWER_SAVING_SLEEP_MODE?RA8876
            CODE    D51AH     0009H     UNIT         ?PR?READ_INTERRUPT_STATUS?RA8876
            CODE    D523H     0009H     UNIT         ?PR?RA8876_I2CM_RECEIVER_DATA?RA8876
            CODE    D52CH     0009H     UNIT         ?PR?READ_GPIO_A_7_0?RA8876
            CODE    D535H     0009H     UNIT         ?PR?READ_GPIO_B_7_0?RA8876
            CODE    D53EH     0009H     UNIT         ?PR?READ_GPIO_C_7_0?RA8876
            CODE    D547H     0009H     UNIT         ?PR?READ_GPIO_D_7_0?RA8876
            CODE    D550H     0009H     UNIT         ?PR?READ_GPIO_E_7_0?RA8876
            CODE    D559H     0009H     UNIT         ?PR?READ_GPIO_F_7_0?RA8876
            CODE    D562H     0008H     UNIT         ?PR?CHECK_MEM_WR_FIFO_EMPTY?RA8876
            CODE    D56AH     0008H     UNIT         ?PR?CHECK_MEM_RD_FIFO_NOT_FULL?RA8876
            CODE    D572H     0008H     UNIT         ?PR?CHECK_MEM_RD_FIFO_NOT_EMPTY?RA8876
            CODE    D57AH     0008H     UNIT         ?PR?CHECK_2D_BUSY?RA8876
            CODE    D582H     0008H     UNIT         ?PR?CHECK_SDRAM_READY?RA8876
            CODE    D58AH     0008H     UNIT         ?PR?CHECK_POWER_IS_NORMAL?RA8876
            CODE    D592H     0008H     UNIT         ?PR?CHECK_POWER_IS_SAVING?RA8876
            CODE    D59AH     0008H     UNIT         ?PR?CHECK_NO_INTERRUPT?RA8876
            CODE    D5A2H     0008H     UNIT         ?PR?CHECK_INTERRUPT_OCCUR?RA8876
            CODE    D5AAH     0008H     UNIT         ?PR?CHECK_BUSY_DRAW?RA8876
            CODE    D5B2H     0008H     UNIT         ?PR?CHECK_BTE_BUSY?RA8876
            CODE    D5BAH     0007H     UNIT         ?PR?_LCD_REGISTERREAD?RA8876
            CODE    D5C1H     0007H     UNIT         ?PR?_SET_GRAPHIC_CURSOR_COLOR_1?RA8876
            CODE    D5C8H     0005H     UNIT         ?PR?LCD_WRITERAM_PREPARE?RA8876
            CODE    D5CDH     0005H     UNIT         ?PR?RA8876_I2CM_STOP?RA8876
            CODE    D5D2H     0005H     UNIT         ?PR?RA8876_I2CM_READ_WITH_ACK?RA8876
            CODE    D5D7H     0005H     UNIT         ?PR?RA8876_I2CM_READ_WITH_NACK?RA8876
            CODE    D5DCH     0005H     UNIT         ?PR?RA8876_I2CM_WRITE_WITH_START?RA8876
            CODE    D5E1H     0005H     UNIT         ?PR?RA8876_I2CM_WRITE?RA8876



OVERLAY MAP OF MODULE:   sd (RA8876)


SEGMENT                                             BIT_GROUP          XDATA_GROUP
  +--> CALLED SEGMENT                            START    LENGTH     START    LENGTH
------------------------------------------------------------------------------------
?C_C51STARTUP                                    -----    -----      -----    -----
  +--> ?PR?MAIN?RA8876
  +--> ?C_INITSEG

?PR?MAIN?RA8876                                  -----    -----      -----    -----
  +--> ?PR?_DELAY_MS?RA8876
  +--> ?PR?RA8876_HW_RESET?RA8876
  +--> ?PR?LCD_STATUSREAD?RA8876
  +--> ?PR?RA8876_INITIAL?RA8876
  +--> ?PR?DISPLAY_ON?RA8876
  +--> ?PR?START_SQUARE_FILL?RA8876
  +--> ?PR?ENABLE_PWM0_INTERRUPT?RA8876
  +--> ?PR?CLEAR_PWM0_INTERRUPT_FLAG?RA8876
  +--> ?PR?MASK_PWM0_INTERRUPT_FLAG?RA8876
  +--> ?PR?SELECT_PWM0_CLOCK_DIVIDED_BY_2?RA...
  +--> ?PR?SELECT_PWM0?RA8876
  +--> ?PR?ENABLE_PWM0_DEAD_ZONE?RA8876
  +--> ?PR?AUTO_RELOAD_PWM0?RA8876
  +--> ?PR?START_PWM0?RA8876
BL51 BANKED LINKER/LOCATER V6.22                                                      07/02/2019  17:10:49  PAGE 11


  +--> ?PR?_SET_TIMER0_COMPARE_BUFFER?RA8876
  +--> ?PR?GEOMETRIC?RA8876
  +--> ?PR?TEXT_DEMO?RA8876
  +--> ?PR?MONO_DEMO?RA8876
  +--> ?PR?GRAY?RA8876
  +--> ?PR?TPTEST?RA8876
  +--> ?PR?DISPLAY_JPG_SDCARD?RA8876
  +--> ?PR?DMA_DEMO?RA8876
  +--> ?PR?BTE_COMPARE?RA8876
  +--> ?PR?BTE_PATTERN_FILL?RA8876
  +--> ?PR?BTE_COLOR_EXPANSION?RA8876
  +--> ?PR?PIP_DEMO?RA8876
  +--> ?PR?APP_DEMO_WAVEFORM?RA8876
  +--> ?PR?APP_DEMO_SCROLLING_TEXT?RA8876
  +--> ?PR?APP_DEMO_SLIDE_FRAME_BUFFER?RA8876
  +--> ?PR?APP_DEMO_MULTI_FRAME_BUFFER?RA8876
  +--> ?PR?APP_DEMO_ALPHA_BLENDING?RA8876

?PR?_DELAY_MS?RA8876                             -----    -----      -----    -----
  +--> ?PR?_PIP_DISPLAY_START_XY?RA8876

?PR?_PIP_DISPLAY_START_XY?RA8876                 -----    -----      02F0H    0002H
  +--> ?PR?_LCD_REGISTERWRITE?RA8876

?PR?_LCD_REGISTERWRITE?RA8876                    -----    -----      -----    -----
  +--> ?PR?_LCD_CMDWRITE?RA8876
  +--> ?PR?_LCD_DATAWRITE?RA8876

?PR?_LCD_CMDWRITE?RA8876                         -----    -----      -----    -----
  +--> ?PR?START?RA8876
  +--> ?PR?_IIC_WRITEBYTE?RA8876
  +--> ?PR?STOP?RA8876

?PR?_IIC_WRITEBYTE?RA8876                        -----    -----      -----    -----
  +--> ?PR?SLAVE_ACK?RA8876

?PR?_LCD_DATAWRITE?RA8876                        -----    -----      -----    -----
  +--> ?PR?START?RA8876
  +--> ?PR?_IIC_WRITEBYTE?RA8876
  +--> ?PR?STOP?RA8876

?PR?RA8876_HW_RESET?RA8876                       -----    -----      -----    -----
  +--> ?PR?_DELAY_MS?RA8876

?PR?LCD_STATUSREAD?RA8876                        -----    -----      -----    -----
  +--> ?PR?START?RA8876
  +--> ?PR?_IIC_WRITEBYTE?RA8876
  +--> ?PR?IIC_READBYTE?RA8876
  +--> ?PR?STOP?RA8876

?PR?IIC_READBYTE?RA8876                          -----    -----      -----    -----
  +--> ?PR?MASTER_ACK?RA8876

?PR?MASTER_ACK?RA8876                            0020H.1  0000H.1    -----    -----

?PR?RA8876_INITIAL?RA8876                        -----    -----      -----    -----
  +--> ?PR?RA8876_SW_RESET?RA8876
BL51 BANKED LINKER/LOCATER V6.22                                                      07/02/2019  17:10:49  PAGE 12


  +--> ?PR?RA8876_PLL_INITIAL?RA8876
  +--> ?PR?RA8876_SDRAM_INITAIL?RA8876
  +--> ?PR?TFT_24BIT?RA8876
  +--> ?PR?RA8876_I2CM_ENABLE?RA8876
  +--> ?PR?HOST_BUS_8BIT?RA8876
  +--> ?PR?RGB_8B_16BPP?RA8876
  +--> ?PR?MEMWRITE_LEFT_RIGHT_TOP_DOWN?RA8876
  +--> ?PR?GRAPHIC_MODE?RA8876
  +--> ?PR?MEMORY_SELECT_SDRAM?RA8876
  +--> ?PR?HSCAN_L_TO_R?RA8876
  +--> ?PR?VSCAN_T_TO_B?RA8876
  +--> ?PR?PDATA_SET_RGB?RA8876
  +--> ?PR?PCLK_FALLING?RA8876
  +--> ?PR?DE_HIGH_ACTIVE?RA8876
  +--> ?PR?HSYNC_HIGH_ACTIVE?RA8876
  +--> ?PR?VSYNC_HIGH_ACTIVE?RA8876
  +--> ?PR?_LCD_HORIZONTALWIDTH_VERTICALHEIG...
  +--> ?PR?_LCD_HORIZONTAL_NON_DISPLAY?RA8876
  +--> ?PR?_LCD_HSYNC_START_POSITION?RA8876
  +--> ?PR?_LCD_HSYNC_PULSE_WIDTH?RA8876
  +--> ?PR?_LCD_VERTICAL_NON_DISPLAY?RA8876
  +--> ?PR?_LCD_VSYNC_START_POSITION?RA8876
  +--> ?PR?_LCD_VSYNC_PULSE_WIDTH?RA8876
  +--> ?PR?SELECT_MAIN_WINDOW_16BPP?RA8876
  +--> ?PR?_MAIN_IMAGE_START_ADDRESS?RA8876
  +--> ?PR?_MAIN_IMAGE_WIDTH?RA8876
  +--> ?PR?_MAIN_WINDOW_START_XY?RA8876
  +--> ?PR?_CANVAS_IMAGE_START_ADDRESS?RA8876
  +--> ?PR?_CANVAS_IMAGE_WIDTH?RA8876
  +--> ?PR?_ACTIVE_WINDOW_XY?RA8876
  +--> ?PR?_ACTIVE_WINDOW_WH?RA8876
  +--> ?PR?MEMORY_XY_MODE?RA8876
  +--> ?PR?MEMORY_16BPP_MODE?RA8876

?PR?RA8876_SW_RESET?RA8876                       -----    -----      -----    -----
  +--> ?PR?_LCD_CMDWRITE?RA8876
  +--> ?PR?LCD_DATAREAD?RA8876
  +--> ?PR?_LCD_DATAWRITE?RA8876

?PR?LCD_DATAREAD?RA8876                          -----    -----      -----    -----
  +--> ?PR?_LCD_CMDWRITE?RA8876
  +--> ?PR?START?RA8876
  +--> ?PR?_IIC_WRITEBYTE?RA8876
  +--> ?PR?IIC_READBYTE?RA8876
  +--> ?PR?STOP?RA8876

?PR?RA8876_PLL_INITIAL?RA8876                    -----    -----      -----    -----
  +--> ?PR?_LCD_REGISTERWRITE?RA8876
  +--> ?PR?_LCD_CMDWRITE?RA8876
  +--> ?PR?_LCD_DATAWRITE?RA8876
  +--> ?PR?_DELAY_US?RA8876
  +--> ?PR?_DELAY_MS?RA8876

?PR?RA8876_SDRAM_INITAIL?RA8876                  -----    -----      -----    -----
  +--> ?PR?_LCD_REGISTERWRITE?RA8876
  +--> ?PR?CHECK_SDRAM_READY?RA8876
  +--> ?PR?_DELAY_MS?RA8876
BL51 BANKED LINKER/LOCATER V6.22                                                      07/02/2019  17:10:49  PAGE 13



?PR?CHECK_SDRAM_READY?RA8876                     -----    -----      -----    -----
  +--> ?PR?LCD_STATUSREAD?RA8876

?PR?TFT_24BIT?RA8876                             -----    -----      -----    -----
  +--> ?PR?_LCD_CMDWRITE?RA8876
  +--> ?PR?LCD_DATAREAD?RA8876
  +--> ?PR?_LCD_DATAWRITE?RA8876

?PR?RA8876_I2CM_ENABLE?RA8876                    -----    -----      -----    -----
  +--> ?PR?_LCD_CMDWRITE?RA8876
  +--> ?PR?LCD_DATAREAD?RA8876
  +--> ?PR?_LCD_DATAWRITE?RA8876

?PR?HOST_BUS_8BIT?RA8876                         -----    -----      -----    -----
  +--> ?PR?_LCD_CMDWRITE?RA8876
  +--> ?PR?LCD_DATAREAD?RA8876
  +--> ?PR?_LCD_DATAWRITE?RA8876

?PR?RGB_8B_16BPP?RA8876                          -----    -----      -----    -----
  +--> ?PR?_LCD_CMDWRITE?RA8876
  +--> ?PR?LCD_DATAREAD?RA8876
  +--> ?PR?_LCD_DATAWRITE?RA8876

?PR?MEMWRITE_LEFT_RIGHT_TOP_DOWN?RA8876          -----    -----      -----    -----
  +--> ?PR?_LCD_CMDWRITE?RA8876
  +--> ?PR?LCD_DATAREAD?RA8876
  +--> ?PR?_LCD_DATAWRITE?RA8876

?PR?GRAPHIC_MODE?RA8876                          -----    -----      -----    -----
  +--> ?PR?_LCD_CMDWRITE?RA8876
  +--> ?PR?LCD_DATAREAD?RA8876
  +--> ?PR?_LCD_DATAWRITE?RA8876

?PR?MEMORY_SELECT_SDRAM?RA8876                   -----    -----      -----    -----
  +--> ?PR?_LCD_CMDWRITE?RA8876
  +--> ?PR?LCD_DATAREAD?RA8876
  +--> ?PR?_LCD_DATAWRITE?RA8876

?PR?HSCAN_L_TO_R?RA8876                          -----    -----      -----    -----
  +--> ?PR?LCD_DATAREAD?RA8876
  +--> ?PR?_LCD_DATAWRITE?RA8876

?PR?VSCAN_T_TO_B?RA8876                          -----    -----      -----    -----
  +--> ?PR?LCD_DATAREAD?RA8876
  +--> ?PR?_LCD_DATAWRITE?RA8876

?PR?PDATA_SET_RGB?RA8876                         -----    -----      -----    -----
  +--> ?PR?LCD_DATAREAD?RA8876
  +--> ?PR?_LCD_DATAWRITE?RA8876

?PR?PCLK_FALLING?RA8876                          -----    -----      -----    -----
  +--> ?PR?LCD_DATAREAD?RA8876
  +--> ?PR?_LCD_DATAWRITE?RA8876

?PR?DE_HIGH_ACTIVE?RA8876                        -----    -----      -----    -----
  +--> ?PR?_LCD_CMDWRITE?RA8876
BL51 BANKED LINKER/LOCATER V6.22                                                      07/02/2019  17:10:49  PAGE 14


  +--> ?PR?LCD_DATAREAD?RA8876
  +--> ?PR?_LCD_DATAWRITE?RA8876

?PR?HSYNC_HIGH_ACTIVE?RA8876                     -----    -----      -----    -----
  +--> ?PR?_LCD_CMDWRITE?RA8876
  +--> ?PR?LCD_DATAREAD?RA8876
  +--> ?PR?_LCD_DATAWRITE?RA8876

?PR?VSYNC_HIGH_ACTIVE?RA8876                     -----    -----      -----    -----
  +--> ?PR?_LCD_CMDWRITE?RA8876
  +--> ?PR?LCD_DATAREAD?RA8876
  +--> ?PR?_LCD_DATAWRITE?RA8876

?PR?_LCD_HORIZONTALWIDTH_VERTICALHEIG...         -----    -----      022AH    0004H
  +--> ?PR?_LCD_CMDWRITE?RA8876
  +--> ?PR?_LCD_DATAWRITE?RA8876

?PR?_LCD_HORIZONTAL_NON_DISPLAY?RA8876           -----    -----      -----    -----
  +--> ?PR?_LCD_CMDWRITE?RA8876
  +--> ?PR?_LCD_DATAWRITE?RA8876

?PR?_LCD_HSYNC_START_POSITION?RA8876             -----    -----      -----    -----
  +--> ?PR?_LCD_CMDWRITE?RA8876
  +--> ?PR?_LCD_DATAWRITE?RA8876

?PR?_LCD_HSYNC_PULSE_WIDTH?RA8876                -----    -----      -----    -----
  +--> ?PR?_LCD_CMDWRITE?RA8876
  +--> ?PR?_LCD_DATAWRITE?RA8876

?PR?_LCD_VERTICAL_NON_DISPLAY?RA8876             -----    -----      -----    -----
  +--> ?PR?_LCD_CMDWRITE?RA8876
  +--> ?PR?_LCD_DATAWRITE?RA8876

?PR?_LCD_VSYNC_START_POSITION?RA8876             -----    -----      -----    -----
  +--> ?PR?_LCD_CMDWRITE?RA8876
  +--> ?PR?_LCD_DATAWRITE?RA8876

?PR?_LCD_VSYNC_PULSE_WIDTH?RA8876                -----    -----      -----    -----
  +--> ?PR?_LCD_CMDWRITE?RA8876
  +--> ?PR?_LCD_DATAWRITE?RA8876

?PR?SELECT_MAIN_WINDOW_16BPP?RA8876              -----    -----      -----    -----
  +--> ?PR?_LCD_CMDWRITE?RA8876
  +--> ?PR?LCD_DATAREAD?RA8876
  +--> ?PR?_LCD_DATAWRITE?RA8876

?PR?_MAIN_IMAGE_START_ADDRESS?RA8876             -----    -----      02FCH    0004H
  +--> ?PR?_LCD_REGISTERWRITE?RA8876

?PR?_MAIN_IMAGE_WIDTH?RA8876                     -----    -----      -----    -----
  +--> ?PR?_LCD_REGISTERWRITE?RA8876

?PR?_MAIN_WINDOW_START_XY?RA8876                 -----    -----      02FAH    0002H
  +--> ?PR?_MAIN_IMAGE_START_ADDRESS?RA8876
  +--> ?PR?_MAIN_IMAGE_WIDTH?RA8876
  +--> ?PR?_LCD_REGISTERWRITE?RA8876

BL51 BANKED LINKER/LOCATER V6.22                                                      07/02/2019  17:10:49  PAGE 15


?PR?_CANVAS_IMAGE_START_ADDRESS?RA8876           -----    -----      02F6H    0004H
  +--> ?PR?_MAIN_IMAGE_WIDTH?RA8876
  +--> ?PR?_MAIN_WINDOW_START_XY?RA8876
  +--> ?PR?_LCD_REGISTERWRITE?RA8876

?PR?_CANVAS_IMAGE_WIDTH?RA8876                   -----    -----      -----    -----
  +--> ?PR?_LCD_REGISTERWRITE?RA8876

?PR?_ACTIVE_WINDOW_XY?RA8876                     -----    -----      02F4H    0002H
  +--> ?PR?_CANVAS_IMAGE_START_ADDRESS?RA8876
  +--> ?PR?_CANVAS_IMAGE_WIDTH?RA8876
  +--> ?PR?_LCD_REGISTERWRITE?RA8876

?PR?_ACTIVE_WINDOW_WH?RA8876                     -----    -----      02F2H    0002H
  +--> ?PR?_MAIN_IMAGE_START_ADDRESS?RA8876
  +--> ?PR?_MAIN_IMAGE_WIDTH?RA8876
  +--> ?PR?_MAIN_WINDOW_START_XY?RA8876
  +--> ?PR?_CANVAS_IMAGE_START_ADDRESS?RA8876
  +--> ?PR?_CANVAS_IMAGE_WIDTH?RA8876
  +--> ?PR?_ACTIVE_WINDOW_XY?RA8876
  +--> ?PR?_LCD_REGISTERWRITE?RA8876

?PR?MEMORY_XY_MODE?RA8876                        -----    -----      -----    -----
  +--> ?PR?_LCD_CMDWRITE?RA8876
  +--> ?PR?LCD_DATAREAD?RA8876
  +--> ?PR?_LCD_DATAWRITE?RA8876

?PR?MEMORY_16BPP_MODE?RA8876                     -----    -----      -----    -----
  +--> ?PR?_LCD_CMDWRITE?RA8876
  +--> ?PR?LCD_DATAREAD?RA8876
  +--> ?PR?_LCD_DATAWRITE?RA8876

?PR?DISPLAY_ON?RA8876                            -----    -----      -----    -----
  +--> ?PR?LCD_DATAREAD?RA8876
  +--> ?PR?_LCD_DATAWRITE?RA8876

?PR?START_SQUARE_FILL?RA8876                     -----    -----      -----    -----
  +--> ?PR?_DELAY_MS?RA8876
  +--> ?PR?_FOREGROUND_COLOR_65K?RA8876
  +--> ?PR?_LINE_START_XY?RA8876
  +--> ?PR?_LINE_END_XY?RA8876
  +--> ?PR?_LCD_CMDWRITE?RA8876
  +--> ?PR?_LCD_DATAWRITE?RA8876
  +--> ?PR?CHECK_BUSY_DRAW?RA8876

?PR?_FOREGROUND_COLOR_65K?RA8876                 -----    -----      -----    -----
  +--> ?PR?_LCD_CMDWRITE?RA8876
  +--> ?PR?_LCD_DATAWRITE?RA8876

?PR?_LINE_START_XY?RA8876                        -----    -----      02ECH    0002H
  +--> ?PR?_CANVAS_IMAGE_START_ADDRESS?RA8876
  +--> ?PR?_FOREGROUND_COLOR_65K?RA8876
  +--> ?PR?_LCD_CMDWRITE?RA8876
  +--> ?PR?_LCD_DATAWRITE?RA8876

?PR?_LINE_END_XY?RA8876                          -----    -----      02EAH    0002H
  +--> ?PR?_FOREGROUND_COLOR_65K?RA8876
BL51 BANKED LINKER/LOCATER V6.22                                                      07/02/2019  17:10:49  PAGE 16


  +--> ?PR?_LINE_START_XY?RA8876
  +--> ?PR?_LCD_CMDWRITE?RA8876
  +--> ?PR?_LCD_DATAWRITE?RA8876

?PR?CHECK_BUSY_DRAW?RA8876                       -----    -----      -----    -----
  +--> ?PR?LCD_STATUSREAD?RA8876

?PR?ENABLE_PWM0_INTERRUPT?RA8876                 -----    -----      -----    -----
  +--> ?PR?_LCD_CMDWRITE?RA8876
  +--> ?PR?LCD_DATAREAD?RA8876
  +--> ?PR?_LCD_DATAWRITE?RA8876

?PR?CLEAR_PWM0_INTERRUPT_FLAG?RA8876             -----    -----      -----    -----
  +--> ?PR?_LCD_CMDWRITE?RA8876
  +--> ?PR?LCD_DATAREAD?RA8876
  +--> ?PR?_LCD_DATAWRITE?RA8876

?PR?MASK_PWM0_INTERRUPT_FLAG?RA8876              -----    -----      -----    -----
  +--> ?PR?_LCD_CMDWRITE?RA8876
  +--> ?PR?LCD_DATAREAD?RA8876
  +--> ?PR?_LCD_DATAWRITE?RA8876

?PR?SELECT_PWM0_CLOCK_DIVIDED_BY_2?RA...         -----    -----      -----    -----
  +--> ?PR?_LCD_CMDWRITE?RA8876
  +--> ?PR?LCD_DATAREAD?RA8876
  +--> ?PR?_LCD_DATAWRITE?RA8876

?PR?SELECT_PWM0?RA8876                           -----    -----      -----    -----
  +--> ?PR?_LCD_CMDWRITE?RA8876
  +--> ?PR?LCD_DATAREAD?RA8876
  +--> ?PR?_LCD_DATAWRITE?RA8876

?PR?ENABLE_PWM0_DEAD_ZONE?RA8876                 -----    -----      -----    -----
  +--> ?PR?_LCD_CMDWRITE?RA8876
  +--> ?PR?LCD_DATAREAD?RA8876
  +--> ?PR?_LCD_DATAWRITE?RA8876

?PR?AUTO_RELOAD_PWM0?RA8876                      -----    -----      -----    -----
  +--> ?PR?_LCD_CMDWRITE?RA8876
  +--> ?PR?LCD_DATAREAD?RA8876
  +--> ?PR?_LCD_DATAWRITE?RA8876

?PR?START_PWM0?RA8876                            -----    -----      -----    -----
  +--> ?PR?_LCD_CMDWRITE?RA8876
  +--> ?PR?LCD_DATAREAD?RA8876
  +--> ?PR?_LCD_DATAWRITE?RA8876

?PR?_SET_TIMER0_COMPARE_BUFFER?RA8876            -----    -----      -----    -----
  +--> ?PR?_LCD_CMDWRITE?RA8876
  +--> ?PR?_LCD_DATAWRITE?RA8876

?PR?GEOMETRIC?RA8876                             -----    -----      022AH    0002H
  +--> ?PR?SELECT_MAIN_WINDOW_16BPP?RA8876
  +--> ?PR?_ACTIVE_WINDOW_WH?RA8876
  +--> ?PR?START_SQUARE_FILL?RA8876
  +--> ?PR?START_SQUARE?RA8876
  +--> ?PR?_DELAY_MS?RA8876
BL51 BANKED LINKER/LOCATER V6.22                                                      07/02/2019  17:10:49  PAGE 17


  +--> ?PR?START_CIRCLE_SQUARE?RA8876
  +--> ?PR?_CIRCLE_CENTER_XY?RA8876
  +--> ?PR?_CIRCLE_RADIUS_R?RA8876
  +--> ?PR?START_CIRCLE_OR_ELLIPSE?RA8876
  +--> ?PR?START_TRIANGLE?RA8876
  +--> ?PR?_FOREGROUND_COLOR_65K?RA8876
  +--> ?PR?_LINE_START_XY?RA8876
  +--> ?PR?_LINE_END_XY?RA8876
  +--> ?PR?START_LINE?RA8876

?PR?START_SQUARE?RA8876                          -----    -----      -----    -----
  +--> ?PR?_FOREGROUND_COLOR_65K?RA8876
  +--> ?PR?_LINE_START_XY?RA8876
  +--> ?PR?_LINE_END_XY?RA8876
  +--> ?PR?_LCD_CMDWRITE?RA8876
  +--> ?PR?_LCD_DATAWRITE?RA8876
  +--> ?PR?CHECK_BUSY_DRAW?RA8876

?PR?START_CIRCLE_SQUARE?RA8876                   -----    -----      -----    -----
  +--> ?PR?_FOREGROUND_COLOR_65K?RA8876
  +--> ?PR?_LINE_START_XY?RA8876
  +--> ?PR?_LINE_END_XY?RA8876
  +--> ?PR?_CIRCLE_SQUARE_RADIUS_RXRY?RA8876
  +--> ?PR?_LCD_CMDWRITE?RA8876
  +--> ?PR?_LCD_DATAWRITE?RA8876
  +--> ?PR?CHECK_BUSY_DRAW?RA8876

?PR?_CIRCLE_SQUARE_RADIUS_RXRY?RA8876            -----    -----      022CH    0002H
  +--> ?PR?_LCD_CMDWRITE?RA8876
  +--> ?PR?_LCD_DATAWRITE?RA8876

?PR?_CIRCLE_CENTER_XY?RA8876                     -----    -----      022CH    0002H
  +--> ?PR?_FOREGROUND_COLOR_65K?RA8876
  +--> ?PR?_LCD_CMDWRITE?RA8876
  +--> ?PR?_LCD_DATAWRITE?RA8876

?PR?_CIRCLE_RADIUS_R?RA8876                      -----    -----      -----    -----
  +--> ?PR?_LCD_CMDWRITE?RA8876
  +--> ?PR?_LCD_DATAWRITE?RA8876

?PR?START_CIRCLE_OR_ELLIPSE?RA8876               -----    -----      -----    -----
  +--> ?PR?_ELLIPSE_RADIUS_RXRY?RA8876
  +--> ?PR?_LCD_CMDWRITE?RA8876
  +--> ?PR?_LCD_DATAWRITE?RA8876
  +--> ?PR?CHECK_BUSY_DRAW?RA8876

?PR?_ELLIPSE_RADIUS_RXRY?RA8876                  -----    -----      022CH    0002H
  +--> ?PR?_LCD_CMDWRITE?RA8876
  +--> ?PR?_LCD_DATAWRITE?RA8876

?PR?START_TRIANGLE?RA8876                        -----    -----      -----    -----
  +--> ?PR?_FOREGROUND_COLOR_65K?RA8876
  +--> ?PR?_TRIANGLE_POINT1_XY?RA8876
  +--> ?PR?_TRIANGLE_POINT2_XY?RA8876
  +--> ?PR?_TRIANGLE_POINT3_XY?RA8876
  +--> ?PR?_LCD_CMDWRITE?RA8876
  +--> ?PR?_LCD_DATAWRITE?RA8876
BL51 BANKED LINKER/LOCATER V6.22                                                      07/02/2019  17:10:49  PAGE 18


  +--> ?PR?CHECK_BUSY_DRAW?RA8876

?PR?_TRIANGLE_POINT1_XY?RA8876                   -----    -----      022CH    0002H
  +--> ?PR?_LCD_CMDWRITE?RA8876
  +--> ?PR?_LCD_DATAWRITE?RA8876

?PR?_TRIANGLE_POINT2_XY?RA8876                   -----    -----      022CH    0002H
  +--> ?PR?_LCD_CMDWRITE?RA8876
  +--> ?PR?_LCD_DATAWRITE?RA8876

?PR?_TRIANGLE_POINT3_XY?RA8876                   -----    -----      022CH    0002H
  +--> ?PR?_LCD_CMDWRITE?RA8876
  +--> ?PR?_LCD_DATAWRITE?RA8876

?PR?START_LINE?RA8876                            -----    -----      -----    -----
  +--> ?PR?_FOREGROUND_COLOR_65K?RA8876
  +--> ?PR?_LINE_START_XY?RA8876
  +--> ?PR?_LINE_END_XY?RA8876
  +--> ?PR?_LCD_CMDWRITE?RA8876
  +--> ?PR?_LCD_DATAWRITE?RA8876
  +--> ?PR?CHECK_BUSY_DRAW?RA8876

?PR?TEXT_DEMO?RA8876                             -----    -----      022AH    0004H
  +--> ?PR?SELECT_MAIN_WINDOW_16BPP?RA8876
  +--> ?PR?_ACTIVE_WINDOW_WH?RA8876
  +--> ?PR?_LINE_START_XY?RA8876
  +--> ?PR?START_SQUARE_FILL?RA8876
  +--> ?PR?_FOREGROUND_COLOR_65K?RA8876
  +--> ?CO?RA8876
  +--> ?PR?_LCD_DISPLAYSTRING?RA8876
  +--> ?PR?CGROM_SELECT_INTERNAL_CGROM?RA8876
  +--> ?PR?FONT_SELECT_12X24_24X24?RA8876
  +--> ?PR?_GOTO_TEXT_XY?RA8876
  +--> ?PR?_SHOW_STRING?RA8876
  +--> ?PR?_BACKGROUND_COLOR_65K?RA8876
  +--> ?PR?NEXTSTEP?RA8876
  +--> ?PR?FONT_SELECT_8X16_16X16?RA8876
  +--> ?PR?FONT_SELECT_16X32_32X32?RA8876
  +--> ?PR?FONT_WIDTH_X1?RA8876
  +--> ?PR?FONT_HEIGHT_X1?RA8876
  +--> ?PR?CGROM_SELECT_GENITOP_FONTROM?RA8876
  +--> ?PR?GTFONT_SELECT_GT23L24T3Y_GT23H24T...
  +--> ?PR?SELECT_SFI_0?RA8876
  +--> ?PR?SELECT_SFI_FONT_MODE?RA8876
  +--> ?PR?SELECT_SFI_24BIT_ADDRESS?RA8876
  +--> ?PR?SELECT_SFI_WAVEFORM_MODE_0?RA8876
  +--> ?PR?SELECT_SFI_0_DUMMYREAD?RA8876
  +--> ?PR?SELECT_SFI_SINGLE_MODE?RA8876
  +--> ?PR?_SPI_CLOCK_PERIOD?RA8876
  +--> ?PR?ENABLE_SFLASH_SPI?RA8876
  +--> ?PR?_SET_GTFONT_DECODER?RA8876
  +--> ?PR?FONT_BACKGROUND_SELECT_TRANSPAREN...
  +--> ?PR?_ACTIVE_WINDOW_XY?RA8876
  +--> ?PR?_GOTO_PIXEL_XY?RA8876
  +--> ?PR?_SHOW_PICTURE?RA8876
  +--> ?PR?FONT_BACKGROUND_SELECT_COLOR?RA8876
  +--> ?PR?TEXT_CURSOR_INITIAL?RA8876
BL51 BANKED LINKER/LOCATER V6.22                                                      07/02/2019  17:10:49  PAGE 19


  +--> ?PR?_DELAY_MS?RA8876
  +--> ?PR?_TEXT_CURSOR_H_V?RA8876
  +--> ?PR?DISABLE_TEXT_CURSOR?RA8876
  +--> ?PR?_SET_GRAPHIC_CURSOR_COLOR_2?RA8876
  +--> ?PR?GRAPHIC_CURSOR_INITIAL?RA8876
  +--> ?PR?_GRAPHIC_CURSOR_XY?RA8876
  +--> ?PR?SELECT_GRAPHIC_CURSOR_1?RA8876
  +--> ?PR?SELECT_GRAPHIC_CURSOR_2?RA8876
  +--> ?PR?SELECT_GRAPHIC_CURSOR_3?RA8876
  +--> ?PR?SELECT_GRAPHIC_CURSOR_4?RA8876
  +--> ?PR?DISABLE_GRAPHIC_CURSOR?RA8876

?PR?_LCD_DISPLAYSTRING?RA8876                    -----    -----      022EH    000FH
  +--> ?PR?_LCD_PUTCHAR?RA8876

?PR?_LCD_PUTCHAR?RA8876                          -----    -----      023DH    000FH
  +--> ?CO?RA8876
  +--> ?PR?_LCD_SETPOINT?RA8876

?PR?_LCD_SETPOINT?RA8876                         -----    -----      024CH    0002H
  +--> ?PR?_LCD_SETCURSOR?RA8876
  +--> ?PR?LCD_WRITERAM_PREPARE?RA8876
  +--> ?PR?_LCD_DATAWRITE?RA8876

?PR?_LCD_SETCURSOR?RA8876                        -----    -----      024EH    0002H
  +--> ?PR?_LCD_CMDWRITE?RA8876
  +--> ?PR?_LCD_DATAWRITE?RA8876

?PR?LCD_WRITERAM_PREPARE?RA8876                  -----    -----      -----    -----
  +--> ?PR?_LCD_CMDWRITE?RA8876

?PR?CGROM_SELECT_INTERNAL_CGROM?RA8876           -----    -----      -----    -----
  +--> ?PR?_FOREGROUND_COLOR_65K?RA8876
  +--> ?PR?_BACKGROUND_COLOR_65K?RA8876
  +--> ?PR?_LCD_CMDWRITE?RA8876
  +--> ?PR?LCD_DATAREAD?RA8876
  +--> ?PR?_LCD_DATAWRITE?RA8876

?PR?_BACKGROUND_COLOR_65K?RA8876                 -----    -----      -----    -----
  +--> ?PR?_FOREGROUND_COLOR_65K?RA8876
  +--> ?PR?_LCD_CMDWRITE?RA8876
  +--> ?PR?_LCD_DATAWRITE?RA8876

?PR?FONT_SELECT_12X24_24X24?RA8876               -----    -----      -----    -----
  +--> ?PR?_FOREGROUND_COLOR_65K?RA8876
  +--> ?PR?_BACKGROUND_COLOR_65K?RA8876
  +--> ?PR?_LCD_CMDWRITE?RA8876
  +--> ?PR?LCD_DATAREAD?RA8876
  +--> ?PR?_LCD_DATAWRITE?RA8876

?PR?_GOTO_TEXT_XY?RA8876                         -----    -----      02EAH    0002H
  +--> ?PR?_LCD_REGISTERWRITE?RA8876

?PR?_SHOW_STRING?RA8876                          -----    -----      -----    -----
  +--> ?CO?RA8876
  +--> ?PR?TEXT_MODE?RA8876
  +--> ?PR?_LCD_CMDWRITE?RA8876
BL51 BANKED LINKER/LOCATER V6.22                                                      07/02/2019  17:10:49  PAGE 20


  +--> ?PR?_LCD_DATAWRITE?RA8876
  +--> ?PR?CHECK_MEM_WR_FIFO_NOT_FULL?RA8876
  +--> ?PR?CHECK_2D_BUSY?RA8876
  +--> ?PR?GRAPHIC_MODE?RA8876

?PR?TEXT_MODE?RA8876                             -----    -----      -----    -----
  +--> ?PR?_LCD_CMDWRITE?RA8876
  +--> ?PR?LCD_DATAREAD?RA8876
  +--> ?PR?_LCD_DATAWRITE?RA8876

?PR?CHECK_MEM_WR_FIFO_NOT_FULL?RA8876            -----    -----      -----    -----
  +--> ?PR?_LCD_CMDWRITE?RA8876
  +--> ?PR?_LCD_DATAWRITE?RA8876
  +--> ?PR?LCD_STATUSREAD?RA8876

?PR?CHECK_2D_BUSY?RA8876                         -----    -----      -----    -----
  +--> ?PR?LCD_STATUSREAD?RA8876

?PR?NEXTSTEP?RA8876                              -----    -----      -----    -----
  +--> ?PR?_DELAY100MS?RA8876

?PR?_DELAY100MS?RA8876                           -----    -----      023AH    0002H
  +--> ?PR?_DELAY_MS?RA8876

?PR?FONT_SELECT_8X16_16X16?RA8876                -----    -----      -----    -----
  +--> ?PR?_LCD_CMDWRITE?RA8876
  +--> ?PR?LCD_DATAREAD?RA8876
  +--> ?PR?_LCD_DATAWRITE?RA8876

?PR?FONT_SELECT_16X32_32X32?RA8876               -----    -----      -----    -----
  +--> ?PR?_LCD_CMDWRITE?RA8876
  +--> ?PR?LCD_DATAREAD?RA8876
  +--> ?PR?_LCD_DATAWRITE?RA8876

?PR?FONT_WIDTH_X1?RA8876                         -----    -----      -----    -----
  +--> ?PR?_LCD_CMDWRITE?RA8876
  +--> ?PR?LCD_DATAREAD?RA8876
  +--> ?PR?_LCD_DATAWRITE?RA8876

?PR?FONT_HEIGHT_X1?RA8876                        -----    -----      -----    -----
  +--> ?PR?_LCD_CMDWRITE?RA8876
  +--> ?PR?LCD_DATAREAD?RA8876
  +--> ?PR?_LCD_DATAWRITE?RA8876

?PR?CGROM_SELECT_GENITOP_FONTROM?RA8876          -----    -----      -----    -----
  +--> ?PR?_LCD_CMDWRITE?RA8876
  +--> ?PR?LCD_DATAREAD?RA8876
  +--> ?PR?_LCD_DATAWRITE?RA8876

?PR?GTFONT_SELECT_GT23L24T3Y_GT23H24T...         -----    -----      -----    -----
  +--> ?PR?_LCD_CMDWRITE?RA8876
  +--> ?PR?LCD_DATAREAD?RA8876
  +--> ?PR?_LCD_DATAWRITE?RA8876

?PR?SELECT_SFI_0?RA8876                          -----    -----      -----    -----
  +--> ?PR?_LCD_CMDWRITE?RA8876
  +--> ?PR?LCD_DATAREAD?RA8876
BL51 BANKED LINKER/LOCATER V6.22                                                      07/02/2019  17:10:49  PAGE 21


  +--> ?PR?_LCD_DATAWRITE?RA8876

?PR?SELECT_SFI_FONT_MODE?RA8876                  -----    -----      -----    -----
  +--> ?PR?_LCD_CMDWRITE?RA8876
  +--> ?PR?LCD_DATAREAD?RA8876
  +--> ?PR?_LCD_DATAWRITE?RA8876

?PR?SELECT_SFI_24BIT_ADDRESS?RA8876              -----    -----      -----    -----
  +--> ?PR?_LCD_CMDWRITE?RA8876
  +--> ?PR?LCD_DATAREAD?RA8876
  +--> ?PR?_LCD_DATAWRITE?RA8876

?PR?SELECT_SFI_WAVEFORM_MODE_0?RA8876            -----    -----      -----    -----
  +--> ?PR?_LCD_CMDWRITE?RA8876
  +--> ?PR?LCD_DATAREAD?RA8876
  +--> ?PR?_LCD_DATAWRITE?RA8876

?PR?SELECT_SFI_0_DUMMYREAD?RA8876                -----    -----      -----    -----
  +--> ?PR?_LCD_CMDWRITE?RA8876
  +--> ?PR?LCD_DATAREAD?RA8876
  +--> ?PR?_LCD_DATAWRITE?RA8876

?PR?SELECT_SFI_SINGLE_MODE?RA8876                -----    -----      -----    -----
  +--> ?PR?_LCD_CMDWRITE?RA8876
  +--> ?PR?LCD_DATAREAD?RA8876
  +--> ?PR?_LCD_DATAWRITE?RA8876

?PR?_SPI_CLOCK_PERIOD?RA8876                     -----    -----      -----    -----
  +--> ?PR?_LCD_CMDWRITE?RA8876
  +--> ?PR?_LCD_DATAWRITE?RA8876

?PR?ENABLE_SFLASH_SPI?RA8876                     -----    -----      -----    -----
  +--> ?PR?_LCD_CMDWRITE?RA8876
  +--> ?PR?LCD_DATAREAD?RA8876
  +--> ?PR?_LCD_DATAWRITE?RA8876

?PR?_SET_GTFONT_DECODER?RA8876                   -----    -----      -----    -----
  +--> ?PR?_LCD_CMDWRITE?RA8876
  +--> ?PR?_LCD_DATAWRITE?RA8876

?PR?FONT_BACKGROUND_SELECT_TRANSPAREN...         -----    -----      -----    -----
  +--> ?PR?_LCD_CMDWRITE?RA8876
  +--> ?PR?LCD_DATAREAD?RA8876
  +--> ?PR?_LCD_DATAWRITE?RA8876

?PR?_GOTO_PIXEL_XY?RA8876                        -----    -----      02F0H    0002H
  +--> ?PR?_ACTIVE_WINDOW_WH?RA8876
  +--> ?PR?_LCD_REGISTERWRITE?RA8876

?PR?_SHOW_PICTURE?RA8876                         -----    -----      022EH    000BH
  +--> ?PR?_LCD_CMDWRITE?RA8876
  +--> ?PR?_LCD_DATAWRITE?RA8876
  +--> ?PR?CHECK_MEM_WR_FIFO_NOT_FULL?RA8876

?PR?FONT_BACKGROUND_SELECT_COLOR?RA8876          -----    -----      -----    -----
  +--> ?PR?_LCD_CMDWRITE?RA8876
  +--> ?PR?LCD_DATAREAD?RA8876
BL51 BANKED LINKER/LOCATER V6.22                                                      07/02/2019  17:10:49  PAGE 22


  +--> ?PR?_LCD_DATAWRITE?RA8876

?PR?TEXT_CURSOR_INITIAL?RA8876                   -----    -----      -----    -----
  +--> ?PR?ENABLE_TEXT_CURSOR_BLINKING?RA8876
  +--> ?PR?_BLINKING_TIME_FRAMES?RA8876
  +--> ?PR?_TEXT_CURSOR_H_V?RA8876
  +--> ?PR?ENABLE_TEXT_CURSOR?RA8876

?PR?ENABLE_TEXT_CURSOR_BLINKING?RA8876           -----    -----      -----    -----
  +--> ?PR?_LCD_CMDWRITE?RA8876
  +--> ?PR?LCD_DATAREAD?RA8876
  +--> ?PR?_LCD_DATAWRITE?RA8876

?PR?_BLINKING_TIME_FRAMES?RA8876                 -----    -----      -----    -----
  +--> ?PR?_LCD_CMDWRITE?RA8876
  +--> ?PR?_LCD_DATAWRITE?RA8876

?PR?_TEXT_CURSOR_H_V?RA8876                      -----    -----      -----    -----
  +--> ?PR?_LCD_CMDWRITE?RA8876
  +--> ?PR?_LCD_DATAWRITE?RA8876

?PR?ENABLE_TEXT_CURSOR?RA8876                    -----    -----      -----    -----
  +--> ?PR?_LCD_CMDWRITE?RA8876
  +--> ?PR?LCD_DATAREAD?RA8876
  +--> ?PR?_LCD_DATAWRITE?RA8876

?PR?DISABLE_TEXT_CURSOR?RA8876                   -----    -----      -----    -----
  +--> ?PR?_LCD_CMDWRITE?RA8876
  +--> ?PR?LCD_DATAREAD?RA8876
  +--> ?PR?_LCD_DATAWRITE?RA8876

?PR?_SET_GRAPHIC_CURSOR_COLOR_2?RA8876           -----    -----      -----    -----
  +--> ?PR?_SET_GRAPHIC_CURSOR_COLOR_1?RA8876
  +--> ?PR?_LCD_REGISTERWRITE?RA8876

?PR?_SET_GRAPHIC_CURSOR_COLOR_1?RA8876           -----    -----      -----    -----
  +--> ?PR?_LCD_REGISTERWRITE?RA8876

?PR?GRAPHIC_CURSOR_INITIAL?RA8876                -----    -----      -----    -----
  +--> ?PR?MEMORY_SELECT_GRAPHIC_CURSOR_RAM?...
  +--> ?PR?GRAPHIC_MODE?RA8876
  +--> ?PR?SELECT_GRAPHIC_CURSOR_1?RA8876
  +--> ?PR?_LCD_CMDWRITE?RA8876
  +--> ?CO?RA8876
  +--> ?PR?_LCD_DATAWRITE?RA8876
  +--> ?PR?SELECT_GRAPHIC_CURSOR_2?RA8876
  +--> ?PR?SELECT_GRAPHIC_CURSOR_3?RA8876
  +--> ?PR?SELECT_GRAPHIC_CURSOR_4?RA8876
  +--> ?PR?MEMORY_SELECT_SDRAM?RA8876
  +--> ?PR?_SET_GRAPHIC_CURSOR_COLOR_2?RA8876
  +--> ?PR?_GRAPHIC_CURSOR_XY?RA8876
  +--> ?PR?ENABLE_GRAPHIC_CURSOR?RA8876

?PR?MEMORY_SELECT_GRAPHIC_CURSOR_RAM?...         -----    -----      -----    -----
  +--> ?PR?_LCD_CMDWRITE?RA8876
  +--> ?PR?LCD_DATAREAD?RA8876
  +--> ?PR?_LCD_DATAWRITE?RA8876
BL51 BANKED LINKER/LOCATER V6.22                                                      07/02/2019  17:10:49  PAGE 23



?PR?SELECT_GRAPHIC_CURSOR_1?RA8876               -----    -----      -----    -----
  +--> ?PR?_LCD_CMDWRITE?RA8876
  +--> ?PR?LCD_DATAREAD?RA8876
  +--> ?PR?_LCD_DATAWRITE?RA8876

?PR?SELECT_GRAPHIC_CURSOR_2?RA8876               -----    -----      -----    -----
  +--> ?PR?_DELAY_MS?RA8876
  +--> ?PR?_LCD_CMDWRITE?RA8876
  +--> ?PR?LCD_DATAREAD?RA8876
  +--> ?PR?_LCD_DATAWRITE?RA8876

?PR?SELECT_GRAPHIC_CURSOR_3?RA8876               -----    -----      -----    -----
  +--> ?PR?_LCD_CMDWRITE?RA8876
  +--> ?PR?LCD_DATAREAD?RA8876
  +--> ?PR?_LCD_DATAWRITE?RA8876

?PR?SELECT_GRAPHIC_CURSOR_4?RA8876               -----    -----      -----    -----
  +--> ?PR?_LCD_CMDWRITE?RA8876
  +--> ?PR?LCD_DATAREAD?RA8876
  +--> ?PR?_LCD_DATAWRITE?RA8876

?PR?_GRAPHIC_CURSOR_XY?RA8876                    -----    -----      022EH    0002H
  +--> ?PR?_LCD_REGISTERWRITE?RA8876

?PR?ENABLE_GRAPHIC_CURSOR?RA8876                 -----    -----      -----    -----
  +--> ?PR?_LCD_CMDWRITE?RA8876
  +--> ?PR?LCD_DATAREAD?RA8876
  +--> ?PR?_LCD_DATAWRITE?RA8876

?PR?DISABLE_GRAPHIC_CURSOR?RA8876                -----    -----      -----    -----
  +--> ?PR?_LCD_CMDWRITE?RA8876
  +--> ?PR?LCD_DATAREAD?RA8876
  +--> ?PR?_LCD_DATAWRITE?RA8876

?PR?MONO_DEMO?RA8876                             -----    -----      -----    -----
  +--> ?PR?SELECT_MAIN_WINDOW_16BPP?RA8876
  +--> ?PR?_ACTIVE_WINDOW_WH?RA8876
  +--> ?PR?START_SQUARE_FILL?RA8876
  +--> ?PR?NEXTSTEP?RA8876

?PR?GRAY?RA8876                                  -----    -----      022AH    0006H
  +--> ?PR?SELECT_MAIN_WINDOW_16BPP?RA8876
  +--> ?PR?_ACTIVE_WINDOW_WH?RA8876
  +--> ?PR?_LINE_END_XY?RA8876
  +--> ?PR?START_SQUARE_FILL?RA8876
  +--> ?PR?_FOREGROUND_COLOR_65K?RA8876
  +--> ?PR?_LINE_START_XY?RA8876
  +--> ?PR?_DELAY_MS?RA8876
  +--> ?PR?NEXTSTEP?RA8876

?PR?TPTEST?RA8876                                -----    -----      022AH    00C0H
  +--> ?PR?SELECT_MAIN_WINDOW_16BPP?RA8876
  +--> ?PR?_ACTIVE_WINDOW_WH?RA8876
  +--> ?PR?START_SQUARE_FILL?RA8876
  +--> ?PR?CGROM_SELECT_INTERNAL_CGROM?RA8876
  +--> ?PR?FONT_SELECT_12X24_24X24?RA8876
BL51 BANKED LINKER/LOCATER V6.22                                                      07/02/2019  17:10:49  PAGE 24


  +--> ?PR?_GOTO_TEXT_XY?RA8876
  +--> ?CO?RA8876
  +--> ?PR?_SHOW_STRING?RA8876
  +--> ?PR?_FOREGROUND_COLOR_65K?RA8876
  +--> ?PR?_BACKGROUND_COLOR_65K?RA8876
  +--> ?PR?FONT_SELECT_8X16_16X16?RA8876
  +--> ?PR?TOUCH_INIT?RA8876
  +--> ?PR?_GT9271_SEND_CFG?RA8876
  +--> ?PR?_GT9271_RD_REG?RA8876
  +--> ?PR?GT9271_READ_DATA?RA8876
  +--> ?PR?_INTTOSTR?RA8876
  +--> ?PR?TEXT_MODE?RA8876
  +--> ?PR?CHECK_MEM_WR_FIFO_NOT_FULL?RA8876
  +--> ?PR?_DRAW_BIG_POINT?RA8876

?PR?TOUCH_INIT?RA8876                            -----    -----      -----    -----
  +--> ?PR?_DELAY_MS?RA8876

?PR?_GT9271_SEND_CFG?RA8876                      -----    -----      02EAH    0006H
  +--> ?PR?_GT9271_WR_REG?RA8876
  +--> ?PR?_DELAY_MS?RA8876

?PR?_GT9271_WR_REG?RA8876                        -----    -----      033FH    0007H
  +--> ?PR?TOUCH_START?RA8876
  +--> ?PR?_TOUCH_SEND_BYTE?RA8876
  +--> ?PR?TOUCH_WAIT_ACK?RA8876
  +--> ?PR?TOUCH_STOP?RA8876

?PR?TOUCH_START?RA8876                           -----    -----      -----    -----
  +--> ?PR?_DELAY_US?RA8876

?PR?_TOUCH_SEND_BYTE?RA8876                      -----    -----      -----    -----
  +--> ?PR?_DELAY_US?RA8876

?PR?TOUCH_WAIT_ACK?RA8876                        -----    -----      0346H    0001H
  +--> ?PR?_TOUCH_SEND_BYTE?RA8876

?PR?TOUCH_STOP?RA8876                            -----    -----      -----    -----
  +--> ?PR?_DELAY_US?RA8876

?PR?_GT9271_RD_REG?RA8876                        -----    -----      033FH    0007H
  +--> ?PR?TOUCH_START?RA8876
  +--> ?PR?_TOUCH_SEND_BYTE?RA8876
  +--> ?PR?TOUCH_WAIT_ACK?RA8876
  +--> ?PR?_TOUCH_READ_BYTE?RA8876
  +--> ?PR?TOUCH_STOP?RA8876

?PR?_TOUCH_READ_BYTE?RA8876                      -----    -----      -----    -----
  +--> ?PR?_DELAY_US?RA8876
  +--> ?PR?TOUCH_NACK?RA8876
  +--> ?PR?TOUCH_ACK?RA8876

?PR?TOUCH_NACK?RA8876                            -----    -----      -----    -----
  +--> ?PR?_DELAY_US?RA8876

?PR?TOUCH_ACK?RA8876                             -----    -----      -----    -----
  +--> ?PR?_DELAY_US?RA8876
BL51 BANKED LINKER/LOCATER V6.22                                                      07/02/2019  17:10:49  PAGE 25



?PR?GT9271_READ_DATA?RA8876                      -----    -----      02EAH    0055H
  +--> ?CO?RA8876
  +--> ?PR?_GT9271_RD_REG?RA8876
  +--> ?PR?_GT9271_WR_REG?RA8876

?PR?_INTTOSTR?RA8876                             -----    -----      02EAH    0005H

?PR?_DRAW_BIG_POINT?RA8876                       -----    -----      02EAH    0006H
  +--> ?PR?GRAPHIC_MODE?RA8876
  +--> ?PR?_GOTO_PIXEL_XY?RA8876
  +--> ?PR?_LCD_CMDWRITE?RA8876
  +--> ?PR?_LCD_DATAWRITE?RA8876

?PR?DISPLAY_JPG_SDCARD?RA8876                    -----    -----      022AH    0009H
  +--> ?PR?SELECT_MAIN_WINDOW_16BPP?RA8876
  +--> ?PR?_ACTIVE_WINDOW_WH?RA8876
  +--> ?PR?START_SQUARE_FILL?RA8876
  +--> ?PR?SDINIT?RA8876
  +--> ?PR?_LCD_SETCURSOR?RA8876
  +--> ?PR?_SDREADBLOCK?RA8876
  +--> ?PR?LCD_WRITERAM_PREPARE?RA8876
  +--> ?PR?_LCD_DATAWRITE?RA8876
  +--> ?PR?NEXTSTEP?RA8876

?PR?SDINIT?RA8876                                -----    -----      0233H    0004H
  +--> ?PR?_SDWRITE?RA8876
  +--> ?PR?SDRESPONSE?RA8876

?PR?SDRESPONSE?RA8876                            -----    -----      -----    -----
  +--> ?PR?_SDCOMMAND?RA8876
  +--> ?PR?SDREAD?RA8876

?PR?_SDCOMMAND?RA8876                            -----    -----      023CH    0006H
  +--> ?PR?_SDWRITE?RA8876

?PR?_SDREADBLOCK?RA8876                          -----    -----      0233H    0009H
  +--> ?PR?_SDCOMMAND?RA8876
  +--> ?PR?SDRESPONSE?RA8876
  +--> ?PR?SDREAD?RA8876

?PR?DMA_DEMO?RA8876                              -----    -----      022AH    0004H
  +--> ?PR?SELECT_MAIN_WINDOW_16BPP?RA8876
  +--> ?PR?_ACTIVE_WINDOW_WH?RA8876
  +--> ?PR?_LINE_START_XY?RA8876
  +--> ?PR?START_SQUARE_FILL?RA8876
  +--> ?PR?_FOREGROUND_COLOR_65K?RA8876
  +--> ?PR?CGROM_SELECT_INTERNAL_CGROM?RA8876
  +--> ?PR?FONT_SELECT_12X24_24X24?RA8876
  +--> ?PR?_GOTO_TEXT_XY?RA8876
  +--> ?CO?RA8876
  +--> ?PR?_SHOW_STRING?RA8876
  +--> ?PR?_BACKGROUND_COLOR_65K?RA8876
  +--> ?PR?ENABLE_SFLASH_SPI?RA8876
  +--> ?PR?SELECT_SFI_1?RA8876
  +--> ?PR?SELECT_SFI_DMA_MODE?RA8876
  +--> ?PR?SELECT_SFI_24BIT_ADDRESS?RA8876
BL51 BANKED LINKER/LOCATER V6.22                                                      07/02/2019  17:10:49  PAGE 26


  +--> ?PR?SELECT_SFI_WAVEFORM_MODE_3?RA8876
  +--> ?PR?SELECT_SFI_8_DUMMYREAD?RA8876
  +--> ?PR?SELECT_SFI_SINGLE_MODE?RA8876
  +--> ?PR?_SPI_CLOCK_PERIOD?RA8876
  +--> ?PR?_SFI_DMA_DESTINATION_UPPER_LEFT_C...
  +--> ?PR?_SFI_DMA_SOURCE_WIDTH?RA8876
  +--> ?PR?START_SFI_DMA?RA8876
  +--> ?PR?CHECK_BUSY_SFI_DMA?RA8876
  +--> ?PR?_DELAY_MS?RA8876
  +--> ?PR?NEXTSTEP?RA8876

?PR?SELECT_SFI_1?RA8876                          -----    -----      -----    -----
  +--> ?PR?_LCD_CMDWRITE?RA8876
  +--> ?PR?LCD_DATAREAD?RA8876
  +--> ?PR?_LCD_DATAWRITE?RA8876

?PR?SELECT_SFI_DMA_MODE?RA8876                   -----    -----      -----    -----
  +--> ?PR?_LCD_CMDWRITE?RA8876
  +--> ?PR?LCD_DATAREAD?RA8876
  +--> ?PR?_LCD_DATAWRITE?RA8876

?PR?SELECT_SFI_WAVEFORM_MODE_3?RA8876            -----    -----      -----    -----
  +--> ?PR?_LCD_CMDWRITE?RA8876
  +--> ?PR?LCD_DATAREAD?RA8876
  +--> ?PR?_LCD_DATAWRITE?RA8876

?PR?SELECT_SFI_8_DUMMYREAD?RA8876                -----    -----      -----    -----
  +--> ?PR?_LCD_CMDWRITE?RA8876
  +--> ?PR?LCD_DATAREAD?RA8876
  +--> ?PR?_LCD_DATAWRITE?RA8876

?PR?_SFI_DMA_DESTINATION_UPPER_LEFT_C...         -----    -----      0232H    0002H
  +--> ?PR?_CANVAS_IMAGE_START_ADDRESS?RA8876
  +--> ?PR?_CANVAS_IMAGE_WIDTH?RA8876
  +--> ?PR?_LCD_CMDWRITE?RA8876
  +--> ?PR?_LCD_DATAWRITE?RA8876

?PR?_SFI_DMA_SOURCE_WIDTH?RA8876                 -----    -----      -----    -----
  +--> ?PR?_SPI_CLOCK_PERIOD?RA8876
  +--> ?PR?_SFI_DMA_DESTINATION_UPPER_LEFT_C...
  +--> ?PR?_SFI_DMA_TRANSFER_WIDTH_HEIGHT?RA...
  +--> ?PR?_LCD_CMDWRITE?RA8876
  +--> ?PR?_LCD_DATAWRITE?RA8876

?PR?_SFI_DMA_TRANSFER_WIDTH_HEIGHT?RA...         -----    -----      0232H    0002H
  +--> ?PR?_LCD_CMDWRITE?RA8876
  +--> ?PR?_LCD_DATAWRITE?RA8876

?PR?START_SFI_DMA?RA8876                         -----    -----      -----    -----
  +--> ?PR?_SFI_DMA_SOURCE_START_ADDRESS?RA8876
  +--> ?PR?_LCD_CMDWRITE?RA8876
  +--> ?PR?LCD_DATAREAD?RA8876
  +--> ?PR?_LCD_DATAWRITE?RA8876

?PR?_SFI_DMA_SOURCE_START_ADDRESS?RA8876         -----    -----      0232H    0004H
  +--> ?PR?_LCD_CMDWRITE?RA8876
  +--> ?PR?_LCD_DATAWRITE?RA8876
BL51 BANKED LINKER/LOCATER V6.22                                                      07/02/2019  17:10:49  PAGE 27



?PR?CHECK_BUSY_SFI_DMA?RA8876                    -----    -----      -----    -----
  +--> ?PR?_LCD_CMDWRITE?RA8876
  +--> ?PR?LCD_DATAREAD?RA8876

?PR?BTE_COMPARE?RA8876                           -----    -----      022AH    0006H
  +--> ?PR?SELECT_MAIN_WINDOW_16BPP?RA8876
  +--> ?PR?_ACTIVE_WINDOW_WH?RA8876
  +--> ?PR?_LINE_START_XY?RA8876
  +--> ?PR?START_SQUARE_FILL?RA8876
  +--> ?PR?_FOREGROUND_COLOR_65K?RA8876
  +--> ?PR?CGROM_SELECT_INTERNAL_CGROM?RA8876
  +--> ?PR?FONT_SELECT_12X24_24X24?RA8876
  +--> ?PR?_GOTO_TEXT_XY?RA8876
  +--> ?CO?RA8876
  +--> ?PR?_SHOW_STRING?RA8876
  +--> ?PR?_BACKGROUND_COLOR_65K?RA8876
  +--> ?PR?ENABLE_SFLASH_SPI?RA8876
  +--> ?PR?SELECT_SFI_1?RA8876
  +--> ?PR?SELECT_SFI_DMA_MODE?RA8876
  +--> ?PR?SELECT_SFI_24BIT_ADDRESS?RA8876
  +--> ?PR?SELECT_SFI_WAVEFORM_MODE_3?RA8876
  +--> ?PR?SELECT_SFI_8_DUMMYREAD?RA8876
  +--> ?PR?SELECT_SFI_SINGLE_MODE?RA8876
  +--> ?PR?_SPI_CLOCK_PERIOD?RA8876
  +--> ?PR?_SFI_DMA_DESTINATION_UPPER_LEFT_C...
  +--> ?PR?_SFI_DMA_SOURCE_WIDTH?RA8876
  +--> ?PR?_SFI_DMA_SOURCE_START_ADDRESS?RA8876
  +--> ?PR?START_SFI_DMA?RA8876
  +--> ?PR?CHECK_BUSY_SFI_DMA?RA8876
  +--> ?PR?_DELAY_MS?RA8876
  +--> ?PR?_ACTIVE_WINDOW_XY?RA8876
  +--> ?PR?_GOTO_PIXEL_XY?RA8876
  +--> ?PR?_LCD_CMDWRITE?RA8876
  +--> ?PR?LCD_DATAREAD?RA8876
  +--> ?PR?CHECK_MEM_RD_FIFO_NOT_EMPTY?RA8876
  +--> ?PR?_LCD_DATAWRITE?RA8876
  +--> ?PR?CHECK_MEM_WR_FIFO_NOT_FULL?RA8876
  +--> ?PR?BTE_S0_COLOR_16BPP?RA8876
  +--> ?PR?BTE_S1_COLOR_16BPP?RA8876
  +--> ?PR?_BTE_S1_IMAGE_WIDTH?RA8876
  +--> ?PR?BTE_DESTINATION_COLOR_16BPP?RA8876
  +--> ?PR?_BTE_DESTINATION_IMAGE_WIDTH?RA8876
  +--> ?PR?_BTE_DESTINATION_WINDOW_START_XY?...
  +--> ?PR?_BTE_WINDOW_SIZE?RA8876
  +--> ?PR?_BTE_ROP_CODE?RA8876
  +--> ?PR?_BTE_OPERATION_CODE?RA8876
  +--> ?PR?BTE_ENABLE?RA8876
  +--> ?PR?CHECK_MEM_WR_FIFO_EMPTY?RA8876
  +--> ?PR?CHECK_BTE_BUSY?RA8876
  +--> ?PR?_LINE_END_XY?RA8876
  +--> ?PR?_BTE_S0_WINDOW_START_XY?RA8876
  +--> ?PR?_CANVAS_IMAGE_START_ADDRESS?RA8876
  +--> ?PR?NEXTSTEP?RA8876

?PR?CHECK_MEM_RD_FIFO_NOT_EMPTY?RA8876           -----    -----      -----    -----
  +--> ?PR?LCD_STATUSREAD?RA8876
BL51 BANKED LINKER/LOCATER V6.22                                                      07/02/2019  17:10:49  PAGE 28



?PR?BTE_S0_COLOR_16BPP?RA8876                    -----    -----      -----    -----
  +--> ?PR?_LCD_CMDWRITE?RA8876
  +--> ?PR?LCD_DATAREAD?RA8876
  +--> ?PR?_LCD_DATAWRITE?RA8876

?PR?BTE_S1_COLOR_16BPP?RA8876                    -----    -----      -----    -----
  +--> ?PR?_LCD_CMDWRITE?RA8876
  +--> ?PR?LCD_DATAREAD?RA8876
  +--> ?PR?_LCD_DATAWRITE?RA8876

?PR?_BTE_S1_IMAGE_WIDTH?RA8876                   -----    -----      -----    -----
  +--> ?PR?_BTE_S1_MEMORY_START_ADDRESS?RA8876
  +--> ?PR?_LCD_REGISTERWRITE?RA8876

?PR?_BTE_S1_MEMORY_START_ADDRESS?RA8876          -----    -----      0232H    0004H
  +--> ?PR?_LCD_REGISTERWRITE?RA8876

?PR?BTE_DESTINATION_COLOR_16BPP?RA8876           -----    -----      -----    -----
  +--> ?PR?_BTE_S1_WINDOW_START_XY?RA8876
  +--> ?PR?_LCD_CMDWRITE?RA8876
  +--> ?PR?LCD_DATAREAD?RA8876
  +--> ?PR?_LCD_DATAWRITE?RA8876

?PR?_BTE_S1_WINDOW_START_XY?RA8876               -----    -----      023AH    0002H
  +--> ?PR?_LCD_REGISTERWRITE?RA8876

?PR?_BTE_DESTINATION_IMAGE_WIDTH?RA8876          -----    -----      -----    -----
  +--> ?PR?_BTE_S0_MEMORY_START_ADDRESS?RA8876
  +--> ?PR?_BTE_S0_IMAGE_WIDTH?RA8876
  +--> ?PR?_BTE_S0_WINDOW_START_XY?RA8876
  +--> ?PR?_BTE_DESTINATION_MEMORY_START_ADD...
  +--> ?PR?_LCD_REGISTERWRITE?RA8876

?PR?_BTE_S0_MEMORY_START_ADDRESS?RA8876          -----    -----      023CH    0004H
  +--> ?PR?_LCD_REGISTERWRITE?RA8876

?PR?_BTE_S0_IMAGE_WIDTH?RA8876                   -----    -----      -----    -----
  +--> ?PR?_LCD_REGISTERWRITE?RA8876

?PR?_BTE_S0_WINDOW_START_XY?RA8876               -----    -----      023AH    0002H
  +--> ?PR?_BTE_S0_MEMORY_START_ADDRESS?RA8876
  +--> ?PR?_BTE_S0_IMAGE_WIDTH?RA8876
  +--> ?PR?_LCD_REGISTERWRITE?RA8876

?PR?_BTE_DESTINATION_MEMORY_START_ADD...         -----    -----      023AH    0004H
  +--> ?PR?_LCD_REGISTERWRITE?RA8876

?PR?_BTE_DESTINATION_WINDOW_START_XY?...         -----    -----      023AH    0002H
  +--> ?PR?_LCD_REGISTERWRITE?RA8876

?PR?_BTE_WINDOW_SIZE?RA8876                      -----    -----      023AH    0002H
  +--> ?PR?_LCD_REGISTERWRITE?RA8876

?PR?_BTE_ROP_CODE?RA8876                         -----    -----      -----    -----
  +--> ?PR?_BTE_DESTINATION_WINDOW_START_XY?...
  +--> ?PR?_BTE_WINDOW_SIZE?RA8876
BL51 BANKED LINKER/LOCATER V6.22                                                      07/02/2019  17:10:49  PAGE 29


  +--> ?PR?_LCD_CMDWRITE?RA8876
  +--> ?PR?LCD_DATAREAD?RA8876
  +--> ?PR?_LCD_DATAWRITE?RA8876

?PR?_BTE_OPERATION_CODE?RA8876                   -----    -----      -----    -----
  +--> ?PR?_LCD_CMDWRITE?RA8876
  +--> ?PR?LCD_DATAREAD?RA8876
  +--> ?PR?_LCD_DATAWRITE?RA8876

?PR?BTE_ENABLE?RA8876                            -----    -----      -----    -----
  +--> ?PR?_LCD_CMDWRITE?RA8876
  +--> ?PR?LCD_DATAREAD?RA8876
  +--> ?PR?_LCD_DATAWRITE?RA8876

?PR?CHECK_MEM_WR_FIFO_EMPTY?RA8876               -----    -----      -----    -----
  +--> ?PR?LCD_STATUSREAD?RA8876

?PR?CHECK_BTE_BUSY?RA8876                        -----    -----      -----    -----
  +--> ?PR?LCD_STATUSREAD?RA8876

?PR?BTE_PATTERN_FILL?RA8876                      -----    -----      022AH    0004H
  +--> ?PR?SELECT_MAIN_WINDOW_16BPP?RA8876
  +--> ?PR?_ACTIVE_WINDOW_WH?RA8876
  +--> ?PR?_LINE_START_XY?RA8876
  +--> ?PR?START_SQUARE_FILL?RA8876
  +--> ?PR?_FOREGROUND_COLOR_65K?RA8876
  +--> ?PR?CGROM_SELECT_INTERNAL_CGROM?RA8876
  +--> ?PR?FONT_SELECT_12X24_24X24?RA8876
  +--> ?PR?_GOTO_TEXT_XY?RA8876
  +--> ?CO?RA8876
  +--> ?PR?_SHOW_STRING?RA8876
  +--> ?PR?ENABLE_SFLASH_SPI?RA8876
  +--> ?PR?SELECT_SFI_1?RA8876
  +--> ?PR?SELECT_SFI_DMA_MODE?RA8876
  +--> ?PR?SELECT_SFI_24BIT_ADDRESS?RA8876
  +--> ?PR?SELECT_SFI_WAVEFORM_MODE_3?RA8876
  +--> ?PR?SELECT_SFI_8_DUMMYREAD?RA8876
  +--> ?PR?SELECT_SFI_SINGLE_MODE?RA8876
  +--> ?PR?_SFI_DMA_SOURCE_WIDTH?RA8876
  +--> ?PR?START_SFI_DMA?RA8876
  +--> ?PR?CHECK_BUSY_SFI_DMA?RA8876
  +--> ?PR?PATTERN_FORMAT_16X16?RA8876
  +--> ?PR?_CANVAS_IMAGE_START_ADDRESS?RA8876
  +--> ?PR?_ACTIVE_WINDOW_XY?RA8876
  +--> ?PR?_GOTO_PIXEL_XY?RA8876
  +--> ?PR?_SHOW_PICTURE?RA8876
  +--> ?PR?BTE_S0_COLOR_16BPP?RA8876
  +--> ?PR?_BTE_S0_MEMORY_START_ADDRESS?RA8876
  +--> ?PR?_BTE_S0_IMAGE_WIDTH?RA8876
  +--> ?PR?BTE_S1_COLOR_16BPP?RA8876
  +--> ?PR?_BTE_S1_IMAGE_WIDTH?RA8876
  +--> ?PR?BTE_DESTINATION_COLOR_16BPP?RA8876
  +--> ?PR?_BTE_DESTINATION_IMAGE_WIDTH?RA8876
  +--> ?PR?_BTE_ROP_CODE?RA8876
  +--> ?PR?_BTE_OPERATION_CODE?RA8876
  +--> ?PR?_BTE_S1_WINDOW_START_XY?RA8876
  +--> ?PR?_BTE_DESTINATION_WINDOW_START_XY?...
BL51 BANKED LINKER/LOCATER V6.22                                                      07/02/2019  17:10:49  PAGE 30


  +--> ?PR?_BTE_WINDOW_SIZE?RA8876
  +--> ?PR?BTE_ENABLE?RA8876
  +--> ?PR?CHECK_BTE_BUSY?RA8876
  +--> ?PR?_BACKGROUND_COLOR_65K?RA8876
  +--> ?PR?_DELAY_MS?RA8876
  +--> ?PR?NEXTSTEP?RA8876

?PR?PATTERN_FORMAT_16X16?RA8876                  -----    -----      -----    -----
  +--> ?PR?_LCD_CMDWRITE?RA8876
  +--> ?PR?LCD_DATAREAD?RA8876
  +--> ?PR?_LCD_DATAWRITE?RA8876

?PR?BTE_COLOR_EXPANSION?RA8876                   -----    -----      022AH    0008H
  +--> ?PR?SELECT_MAIN_WINDOW_16BPP?RA8876
  +--> ?PR?_ACTIVE_WINDOW_WH?RA8876
  +--> ?PR?_LINE_START_XY?RA8876
  +--> ?PR?START_SQUARE_FILL?RA8876
  +--> ?PR?_FOREGROUND_COLOR_65K?RA8876
  +--> ?PR?CGROM_SELECT_INTERNAL_CGROM?RA8876
  +--> ?PR?FONT_SELECT_12X24_24X24?RA8876
  +--> ?PR?_GOTO_TEXT_XY?RA8876
  +--> ?CO?RA8876
  +--> ?PR?_SHOW_STRING?RA8876
  +--> ?PR?ENABLE_SFLASH_SPI?RA8876
  +--> ?PR?SELECT_SFI_1?RA8876
  +--> ?PR?SELECT_SFI_DMA_MODE?RA8876
  +--> ?PR?SELECT_SFI_24BIT_ADDRESS?RA8876
  +--> ?PR?SELECT_SFI_WAVEFORM_MODE_3?RA8876
  +--> ?PR?SELECT_SFI_8_DUMMYREAD?RA8876
  +--> ?PR?SELECT_SFI_SINGLE_MODE?RA8876
  +--> ?PR?_SFI_DMA_SOURCE_WIDTH?RA8876
  +--> ?PR?START_SFI_DMA?RA8876
  +--> ?PR?CHECK_BUSY_SFI_DMA?RA8876
  +--> ?PR?BTE_S0_COLOR_16BPP?RA8876
  +--> ?PR?BTE_S1_COLOR_16BPP?RA8876
  +--> ?PR?BTE_DESTINATION_COLOR_16BPP?RA8876
  +--> ?PR?_BTE_DESTINATION_IMAGE_WIDTH?RA8876
  +--> ?PR?_BTE_DESTINATION_WINDOW_START_XY?...
  +--> ?PR?_BTE_WINDOW_SIZE?RA8876
  +--> ?PR?_BACKGROUND_COLOR_65K?RA8876
  +--> ?PR?_BTE_ROP_CODE?RA8876
  +--> ?PR?_BTE_OPERATION_CODE?RA8876
  +--> ?PR?BTE_ENABLE?RA8876
  +--> ?PR?_LCD_CMDWRITE?RA8876
  +--> ?PR?_SHOW_PICTURE1?RA8876
  +--> ?PR?CHECK_MEM_WR_FIFO_EMPTY?RA8876
  +--> ?PR?CHECK_BTE_BUSY?RA8876
  +--> ?PR?NEXTSTEP?RA8876

?PR?_SHOW_PICTURE1?RA8876                        -----    -----      0232H    000BH
  +--> ?PR?_LCD_CMDWRITE?RA8876
  +--> ?PR?_LCD_DATAWRITE?RA8876
  +--> ?PR?CHECK_MEM_WR_FIFO_NOT_FULL?RA8876

?PR?PIP_DEMO?RA8876                              -----    -----      022AH    0008H
  +--> ?PR?SELECT_MAIN_WINDOW_16BPP?RA8876
  +--> ?PR?_ACTIVE_WINDOW_WH?RA8876
BL51 BANKED LINKER/LOCATER V6.22                                                      07/02/2019  17:10:49  PAGE 31


  +--> ?PR?_LINE_START_XY?RA8876
  +--> ?PR?START_SQUARE_FILL?RA8876
  +--> ?PR?_FOREGROUND_COLOR_65K?RA8876
  +--> ?PR?CGROM_SELECT_INTERNAL_CGROM?RA8876
  +--> ?PR?FONT_SELECT_12X24_24X24?RA8876
  +--> ?PR?_GOTO_TEXT_XY?RA8876
  +--> ?CO?RA8876
  +--> ?PR?_SHOW_STRING?RA8876
  +--> ?PR?MEMORY_16BPP_MODE?RA8876
  +--> ?PR?_DELAY_MS?RA8876
  +--> ?PR?_ACTIVE_WINDOW_XY?RA8876
  +--> ?PR?_GOTO_PIXEL_XY?RA8876
  +--> ?PR?_LCD_CMDWRITE?RA8876
  +--> ?PR?_LCD_DATAWRITE?RA8876
  +--> ?PR?CHECK_MEM_WR_FIFO_EMPTY?RA8876
  +--> ?PR?_BACKGROUND_COLOR_65K?RA8876
  +--> ?PR?SELECT_PIP1_WINDOW_16BPP?RA8876
  +--> ?PR?SELECT_PIP1_PARAMETER?RA8876
  +--> ?PR?_PIP_WINDOW_IMAGE_START_XY?RA8876
  +--> ?PR?_PIP_DISPLAY_START_XY?RA8876
  +--> ?PR?ENABLE_PIP1?RA8876
  +--> ?PR?SELECT_PIP2_WINDOW_16BPP?RA8876
  +--> ?PR?SELECT_PIP2_PARAMETER?RA8876
  +--> ?PR?ENABLE_PIP2?RA8876
  +--> ?PR?ENABLE_SFLASH_SPI?RA8876
  +--> ?PR?SELECT_SFI_1?RA8876
  +--> ?PR?SELECT_SFI_DMA_MODE?RA8876
  +--> ?PR?SELECT_SFI_24BIT_ADDRESS?RA8876
  +--> ?PR?SELECT_SFI_WAVEFORM_MODE_3?RA8876
  +--> ?PR?SELECT_SFI_8_DUMMYREAD?RA8876
  +--> ?PR?SELECT_SFI_SINGLE_MODE?RA8876
  +--> ?PR?_SPI_CLOCK_PERIOD?RA8876
  +--> ?PR?_SFI_DMA_DESTINATION_UPPER_LEFT_C...
  +--> ?PR?_SFI_DMA_SOURCE_WIDTH?RA8876
  +--> ?PR?_SFI_DMA_SOURCE_START_ADDRESS?RA8876
  +--> ?PR?START_SFI_DMA?RA8876
  +--> ?PR?CHECK_BUSY_SFI_DMA?RA8876
  +--> ?PR?NEXTSTEP?RA8876
  +--> ?PR?DISABLE_PIP1?RA8876
  +--> ?PR?DISABLE_PIP2?RA8876

?PR?SELECT_PIP1_WINDOW_16BPP?RA8876              -----    -----      -----    -----
  +--> ?PR?_LCD_CMDWRITE?RA8876
  +--> ?PR?LCD_DATAREAD?RA8876
  +--> ?PR?_LCD_DATAWRITE?RA8876

?PR?SELECT_PIP1_PARAMETER?RA8876                 -----    -----      -----    -----
  +--> ?PR?_LCD_CMDWRITE?RA8876
  +--> ?PR?LCD_DATAREAD?RA8876
  +--> ?PR?_LCD_DATAWRITE?RA8876

?PR?_PIP_WINDOW_IMAGE_START_XY?RA8876            -----    -----      0232H    0002H
  +--> ?PR?_PIP_IMAGE_START_ADDRESS?RA8876
  +--> ?PR?_PIP_IMAGE_WIDTH?RA8876
  +--> ?PR?_PIP_WINDOW_WIDTH_HEIGHT?RA8876
  +--> ?PR?_LCD_REGISTERWRITE?RA8876

BL51 BANKED LINKER/LOCATER V6.22                                                      07/02/2019  17:10:49  PAGE 32


?PR?_PIP_IMAGE_START_ADDRESS?RA8876              -----    -----      0234H    0004H
  +--> ?PR?_LCD_REGISTERWRITE?RA8876

?PR?_PIP_IMAGE_WIDTH?RA8876                      -----    -----      -----    -----
  +--> ?PR?_LCD_REGISTERWRITE?RA8876

?PR?_PIP_WINDOW_WIDTH_HEIGHT?RA8876              -----    -----      0234H    0002H
  +--> ?PR?_LCD_REGISTERWRITE?RA8876

?PR?ENABLE_PIP1?RA8876                           -----    -----      -----    -----
  +--> ?PR?_LCD_CMDWRITE?RA8876
  +--> ?PR?LCD_DATAREAD?RA8876
  +--> ?PR?_LCD_DATAWRITE?RA8876

?PR?SELECT_PIP2_WINDOW_16BPP?RA8876              -----    -----      -----    -----
  +--> ?PR?_LCD_CMDWRITE?RA8876
  +--> ?PR?LCD_DATAREAD?RA8876
  +--> ?PR?_LCD_DATAWRITE?RA8876

?PR?SELECT_PIP2_PARAMETER?RA8876                 -----    -----      -----    -----
  +--> ?PR?_LCD_CMDWRITE?RA8876
  +--> ?PR?LCD_DATAREAD?RA8876
  +--> ?PR?_LCD_DATAWRITE?RA8876

?PR?ENABLE_PIP2?RA8876                           -----    -----      -----    -----
  +--> ?PR?_LCD_CMDWRITE?RA8876
  +--> ?PR?LCD_DATAREAD?RA8876
  +--> ?PR?_LCD_DATAWRITE?RA8876

?PR?DISABLE_PIP1?RA8876                          -----    -----      -----    -----
  +--> ?PR?_LCD_CMDWRITE?RA8876
  +--> ?PR?LCD_DATAREAD?RA8876
  +--> ?PR?_LCD_DATAWRITE?RA8876

?PR?DISABLE_PIP2?RA8876                          -----    -----      -----    -----
  +--> ?PR?_LCD_CMDWRITE?RA8876
  +--> ?PR?LCD_DATAREAD?RA8876
  +--> ?PR?_LCD_DATAWRITE?RA8876

?PR?APP_DEMO_WAVEFORM?RA8876                     -----    -----      022AH    0010H
  +--> ?PR?SELECT_MAIN_WINDOW_16BPP?RA8876
  +--> ?PR?_ACTIVE_WINDOW_WH?RA8876
  +--> ?PR?_LINE_START_XY?RA8876
  +--> ?PR?START_SQUARE_FILL?RA8876
  +--> ?PR?_FOREGROUND_COLOR_65K?RA8876
  +--> ?PR?CGROM_SELECT_INTERNAL_CGROM?RA8876
  +--> ?PR?FONT_SELECT_12X24_24X24?RA8876
  +--> ?PR?_GOTO_TEXT_XY?RA8876
  +--> ?CO?RA8876
  +--> ?PR?_SHOW_STRING?RA8876
  +--> ?PR?_BACKGROUND_COLOR_65K?RA8876
  +--> ?PR?_CANVAS_IMAGE_START_ADDRESS?RA8876
  +--> ?PR?_LINE_END_XY?RA8876
  +--> ?PR?START_LINE?RA8876
  +--> ?PR?BTE_S0_COLOR_16BPP?RA8876
  +--> ?PR?_BTE_S0_WINDOW_START_XY?RA8876
  +--> ?PR?BTE_DESTINATION_COLOR_16BPP?RA8876
BL51 BANKED LINKER/LOCATER V6.22                                                      07/02/2019  17:10:49  PAGE 33


  +--> ?PR?_BTE_DESTINATION_IMAGE_WIDTH?RA8876
  +--> ?PR?_BTE_DESTINATION_WINDOW_START_XY?...
  +--> ?PR?_BTE_ROP_CODE?RA8876
  +--> ?PR?_BTE_OPERATION_CODE?RA8876
  +--> ?PR?BTE_ENABLE?RA8876
  +--> ?PR?CHECK_BTE_BUSY?RA8876
  +--> ?PR?_BTE_WINDOW_SIZE?RA8876
  +--> ?PR?RAND?RAND
  +--> ?PR?NEXTSTEP?RA8876

?PR?APP_DEMO_SCROLLING_TEXT?RA8876               -----    -----      022AH    0002H
  +--> ?PR?SELECT_MAIN_WINDOW_16BPP?RA8876
  +--> ?PR?_MAIN_WINDOW_START_XY?RA8876
  +--> ?PR?_ACTIVE_WINDOW_WH?RA8876
  +--> ?PR?_LINE_START_XY?RA8876
  +--> ?PR?START_SQUARE_FILL?RA8876
  +--> ?PR?_FOREGROUND_COLOR_65K?RA8876
  +--> ?PR?CGROM_SELECT_INTERNAL_CGROM?RA8876
  +--> ?PR?FONT_SELECT_12X24_24X24?RA8876
  +--> ?PR?_GOTO_TEXT_XY?RA8876
  +--> ?CO?RA8876
  +--> ?PR?_SHOW_STRING?RA8876
  +--> ?PR?ENABLE_SFLASH_SPI?RA8876
  +--> ?PR?SELECT_SFI_1?RA8876
  +--> ?PR?SELECT_SFI_DMA_MODE?RA8876
  +--> ?PR?SELECT_SFI_24BIT_ADDRESS?RA8876
  +--> ?PR?SELECT_SFI_WAVEFORM_MODE_3?RA8876
  +--> ?PR?SELECT_SFI_8_DUMMYREAD?RA8876
  +--> ?PR?SELECT_SFI_SINGLE_MODE?RA8876
  +--> ?PR?_SPI_CLOCK_PERIOD?RA8876
  +--> ?PR?_SFI_DMA_DESTINATION_UPPER_LEFT_C...
  +--> ?PR?_SFI_DMA_SOURCE_WIDTH?RA8876
  +--> ?PR?_SFI_DMA_SOURCE_START_ADDRESS?RA8876
  +--> ?PR?START_SFI_DMA?RA8876
  +--> ?PR?CHECK_BUSY_SFI_DMA?RA8876
  +--> ?PR?BTE_S0_COLOR_16BPP?RA8876
  +--> ?PR?_BTE_S0_WINDOW_START_XY?RA8876
  +--> ?PR?BTE_DESTINATION_COLOR_16BPP?RA8876
  +--> ?PR?_BTE_DESTINATION_IMAGE_WIDTH?RA8876
  +--> ?PR?_BTE_ROP_CODE?RA8876
  +--> ?PR?_BTE_OPERATION_CODE?RA8876
  +--> ?PR?BTE_ENABLE?RA8876
  +--> ?PR?CHECK_BTE_BUSY?RA8876
  +--> ?PR?_BACKGROUND_COLOR_65K?RA8876
  +--> ?PR?_BTE_DESTINATION_WINDOW_START_XY?...
  +--> ?PR?_BTE_WINDOW_SIZE?RA8876
  +--> ?PR?_BTE_S0_MEMORY_START_ADDRESS?RA8876
  +--> ?PR?_BTE_S0_IMAGE_WIDTH?RA8876
  +--> ?PR?NEXTSTEP?RA8876

?PR?APP_DEMO_SLIDE_FRAME_BUFFER?RA8876           -----    -----      022AH    0008H
  +--> ?PR?SELECT_MAIN_WINDOW_16BPP?RA8876
  +--> ?PR?_MAIN_WINDOW_START_XY?RA8876
  +--> ?PR?ENABLE_SFLASH_SPI?RA8876
  +--> ?PR?SELECT_SFI_1?RA8876
  +--> ?PR?SELECT_SFI_DMA_MODE?RA8876
  +--> ?PR?SELECT_SFI_24BIT_ADDRESS?RA8876
BL51 BANKED LINKER/LOCATER V6.22                                                      07/02/2019  17:10:49  PAGE 34


  +--> ?PR?SELECT_SFI_WAVEFORM_MODE_3?RA8876
  +--> ?PR?SELECT_SFI_8_DUMMYREAD?RA8876
  +--> ?PR?SELECT_SFI_SINGLE_MODE?RA8876
  +--> ?PR?_SPI_CLOCK_PERIOD?RA8876
  +--> ?PR?_SFI_DMA_DESTINATION_UPPER_LEFT_C...
  +--> ?PR?_SFI_DMA_SOURCE_WIDTH?RA8876
  +--> ?PR?_MAIN_IMAGE_START_ADDRESS?RA8876
  +--> ?PR?_CANVAS_IMAGE_START_ADDRESS?RA8876
  +--> ?PR?_ACTIVE_WINDOW_XY?RA8876
  +--> ?PR?_ACTIVE_WINDOW_WH?RA8876
  +--> ?PR?_LINE_START_XY?RA8876
  +--> ?PR?START_SQUARE_FILL?RA8876
  +--> ?PR?_SFI_DMA_SOURCE_START_ADDRESS?RA8876
  +--> ?PR?START_SFI_DMA?RA8876
  +--> ?PR?CHECK_BUSY_SFI_DMA?RA8876
  +--> ?PR?CGROM_SELECT_INTERNAL_CGROM?RA8876
  +--> ?PR?FONT_SELECT_12X24_24X24?RA8876
  +--> ?PR?_GOTO_TEXT_XY?RA8876
  +--> ?CO?RA8876
  +--> ?PR?_SHOW_STRING?RA8876
  +--> ?PR?_DELAY_MS?RA8876
  +--> ?PR?NEXTSTEP?RA8876

?PR?APP_DEMO_MULTI_FRAME_BUFFER?RA8876           -----    -----      022AH    0008H
  +--> ?PR?SELECT_MAIN_WINDOW_16BPP?RA8876
  +--> ?PR?_MAIN_WINDOW_START_XY?RA8876
  +--> ?PR?ENABLE_SFLASH_SPI?RA8876
  +--> ?PR?SELECT_SFI_1?RA8876
  +--> ?PR?SELECT_SFI_DMA_MODE?RA8876
  +--> ?PR?SELECT_SFI_24BIT_ADDRESS?RA8876
  +--> ?PR?SELECT_SFI_WAVEFORM_MODE_3?RA8876
  +--> ?PR?SELECT_SFI_8_DUMMYREAD?RA8876
  +--> ?PR?SELECT_SFI_SINGLE_MODE?RA8876
  +--> ?PR?_SPI_CLOCK_PERIOD?RA8876
  +--> ?PR?_SFI_DMA_SOURCE_WIDTH?RA8876
  +--> ?PR?_ACTIVE_WINDOW_WH?RA8876
  +--> ?PR?_LINE_START_XY?RA8876
  +--> ?PR?_LINE_END_XY?RA8876
  +--> ?PR?START_SQUARE_FILL?RA8876
  +--> ?PR?_FOREGROUND_COLOR_65K?RA8876
  +--> ?PR?CGROM_SELECT_INTERNAL_CGROM?RA8876
  +--> ?PR?FONT_SELECT_12X24_24X24?RA8876
  +--> ?PR?_GOTO_TEXT_XY?RA8876
  +--> ?CO?RA8876
  +--> ?PR?_SHOW_STRING?RA8876
  +--> ?PR?START_SFI_DMA?RA8876
  +--> ?PR?CHECK_BUSY_SFI_DMA?RA8876
  +--> ?PR?_DELAY_MS?RA8876
  +--> ?PR?_MAIN_IMAGE_START_ADDRESS?RA8876
  +--> ?PR?_CANVAS_IMAGE_START_ADDRESS?RA8876
  +--> ?PR?_ACTIVE_WINDOW_XY?RA8876
  +--> ?PR?_SFI_DMA_DESTINATION_UPPER_LEFT_C...
  +--> ?PR?NEXTSTEP?RA8876

?PR?APP_DEMO_ALPHA_BLENDING?RA8876               -----    -----      022AH    0008H
  +--> ?PR?SELECT_MAIN_WINDOW_16BPP?RA8876
  +--> ?PR?_ACTIVE_WINDOW_WH?RA8876
BL51 BANKED LINKER/LOCATER V6.22                                                      07/02/2019  17:10:49  PAGE 35


  +--> ?PR?_LINE_START_XY?RA8876
  +--> ?PR?START_SQUARE_FILL?RA8876
  +--> ?PR?_FOREGROUND_COLOR_65K?RA8876
  +--> ?PR?CGROM_SELECT_INTERNAL_CGROM?RA8876
  +--> ?PR?FONT_SELECT_12X24_24X24?RA8876
  +--> ?PR?_GOTO_TEXT_XY?RA8876
  +--> ?CO?RA8876
  +--> ?PR?_SHOW_STRING?RA8876
  +--> ?PR?ENABLE_SFLASH_SPI?RA8876
  +--> ?PR?SELECT_SFI_1?RA8876
  +--> ?PR?SELECT_SFI_DMA_MODE?RA8876
  +--> ?PR?SELECT_SFI_24BIT_ADDRESS?RA8876
  +--> ?PR?SELECT_SFI_WAVEFORM_MODE_3?RA8876
  +--> ?PR?SELECT_SFI_8_DUMMYREAD?RA8876
  +--> ?PR?SELECT_SFI_SINGLE_MODE?RA8876
  +--> ?PR?_SPI_CLOCK_PERIOD?RA8876
  +--> ?PR?_CANVAS_IMAGE_START_ADDRESS?RA8876
  +--> ?PR?_SFI_DMA_SOURCE_WIDTH?RA8876
  +--> ?PR?_SFI_DMA_SOURCE_START_ADDRESS?RA8876
  +--> ?PR?START_SFI_DMA?RA8876
  +--> ?PR?CHECK_BUSY_SFI_DMA?RA8876
  +--> ?PR?BTE_DESTINATION_COLOR_16BPP?RA8876
  +--> ?PR?_BTE_DESTINATION_IMAGE_WIDTH?RA8876
  +--> ?PR?_BTE_DESTINATION_WINDOW_START_XY?...
  +--> ?PR?_BTE_WINDOW_SIZE?RA8876
  +--> ?PR?BTE_S0_COLOR_16BPP?RA8876
  +--> ?PR?_BTE_S0_WINDOW_START_XY?RA8876
  +--> ?PR?BTE_S1_COLOR_16BPP?RA8876
  +--> ?PR?_BTE_S1_IMAGE_WIDTH?RA8876
  +--> ?PR?_BTE_S1_WINDOW_START_XY?RA8876
  +--> ?PR?_BTE_ROP_CODE?RA8876
  +--> ?PR?_BTE_OPERATION_CODE?RA8876
  +--> ?PR?_BTE_ALPHA_BLENDING_EFFECT?RA8876
  +--> ?PR?BTE_ENABLE?RA8876
  +--> ?PR?_DELAY_MS?RA8876
  +--> ?PR?NEXTSTEP?RA8876

?PR?_BTE_ALPHA_BLENDING_EFFECT?RA8876            -----    -----      -----    -----
  +--> ?PR?_LCD_CMDWRITE?RA8876
  +--> ?PR?_LCD_DATAWRITE?RA8876



SYMBOL TABLE OF MODULE:  sd (RA8876)

  VALUE           TYPE          NAME
  ----------------------------------

  -------         MODULE        RA8876
  C:0000H         SYMBOL        _ICE_DUMMY_
  C:BE52H         PUBLIC        _Show_String
  C:C2DDH         PUBLIC        Power_Saving_Standby_Mode
  C:C93DH         PUBLIC        Font_Select_8x16_16x16
  C:C8A4H         PUBLIC        BTE_S0_Color_8bpp
  C:C893H         PUBLIC        Select_PWM1_is_Osc_Clock
  C:C640H         PUBLIC        MemRead_Down_Top_Left_Right
  C:C62FH         PUBLIC        MemRead_Top_Down_Left_Right
BL51 BANKED LINKER/LOCATER V6.22                                                      07/02/2019  17:10:49  PAGE 36


  C:C61EH         PUBLIC        MemRead_Right_Left_Top_Down
  C:C60DH         PUBLIC        MemRead_Left_Right_Top_Down
  C:C304H         PUBLIC        BTE_S1_Color_8bpp
  C:B814H         PUBLIC        _Square_End_XY
  C:CC93H         PUBLIC        Mask_DMA_Draw_BTE_Interrupt_Flag
  D:0080H         PUBLIC        P0
  C:CCCFH         PUBLIC        Enable_ExtInterrupt_Inpur_Flag
  C:CC48H         PUBLIC        Clear_PWM0_Interrupt_Flag
  D:0090H         PUBLIC        P1
  C:D2E5H         PUBLIC        Start_Right_Up_Curve
  C:CC39H         PUBLIC        Clear_PWM1_Interrupt_Flag
  D:00A0H         PUBLIC        P2
  D:00B0H         PUBLIC        P3
  C:D3AEH         PUBLIC        _SPI_Clock_Period
  C:D1CAH         PUBLIC        Reset_CPHA
  D:00C0H         PUBLIC        P4
  B:00B0H.3       PUBLIC        RESET
  B:0090H.5       PUBLIC        SD_DI
  C:A5CBH         PUBLIC        _Show_picture
  C:C83EH         PUBLIC        Select_PWM0_Clock_Divided_By_1
  C:C70CH         PUBLIC        Select_Main_Window_8bpp
  C:CBD0H         PUBLIC        Enable_PWM0_Interrupt
  C:D572H         PUBLIC        Check_Mem_RD_FIFO_not_Empty
  D:00C8H         PUBLIC        P5
  C:C8C6H         PUBLIC        BTE_Destination_Color_8bpp
  C:CFDBH         PUBLIC        Enable_PWM0_Inverter
  C:C84FH         PUBLIC        Select_PWM0_Clock_Divided_By_2
  C:C7FAH         PUBLIC        Select_PWM1_Clock_Divided_By_1
  C:CD47H         PUBLIC        Disable_XDB7_0_PullUp
  C:CBB2H         PUBLIC        Enable_PWM1_Interrupt
  C:CAA4H         PUBLIC        Host_Bus_8bit
  C:D035H         PUBLIC        BTE_Enable
  C:CF63H         PUBLIC        Enable_PWM1_Inverter
  C:C80BH         PUBLIC        Select_PWM1_Clock_Divided_By_2
  C:D333H         PUBLIC        Start_Circle_Square_Fill
  C:8A23H         PUBLIC        BTE_Compare
  C:BDCCH         PUBLIC        _Background_color_256
  C:BE8DH         PUBLIC        Start_SFI_DMA
  C:C860H         PUBLIC        Select_PWM0_Clock_Divided_By_4
  C:D56AH         PUBLIC        Check_Mem_RD_FIFO_not_Full
  C:9DCFH         PUBLIC        BTE_Pattern_Fill
  C:AD0BH         PUBLIC        _SFI_DMA_Source_Start_Address
  C:D0ADH         PUBLIC        Select_SFI_Font_Mode
  C:C81CH         PUBLIC        Select_PWM1_Clock_Divided_By_4
  C:C6EAH         PUBLIC        Memory_Select_Graphic_Cursor_RAM
  B:00B0H.0       PUBLIC        SDA1
  C:CE91H         PUBLIC        Idle_VSYNC_Low
  C:CA68H         PUBLIC        RA8876_I2CM_Enable
  C:C585H         PUBLIC        TFT_LVDS
  B:0090H.6       PUBLIC        SD_DO
  C:A435H         PUBLIC        _LCD_DisplayString
  C:D506H         PUBLIC        Power_Saving_Suspend_Mode
  C:BD2EH         PUBLIC        _BTE_ROP_Code
  C:C871H         PUBLIC        Select_PWM0_Clock_Divided_By_8
  C:BCBBH         PUBLIC        _LCD_HSYNC_Pulse_Width
  C:CC75H         PUBLIC        Mask_I2CM_Interrupt_Flag
  C:A27BH         PUBLIC        _inttostr
BL51 BANKED LINKER/LOCATER V6.22                                                      07/02/2019  17:10:49  PAGE 37


  C:C13AH         PUBLIC        SdResponse
  C:C4E7H         PUBLIC        EMTI_Flag
  C:C82DH         PUBLIC        Select_PWM1_Clock_Divided_By_8
  C:C22AH         PUBLIC        TOUCH_Stop
  B:0090H.4       PUBLIC        SD_CS
  C:CFCCH         PUBLIC        Disable_PWM0_Dead_Zone
  C:D2D8H         PUBLIC        Start_Left_Up_Curve
  C:B5F6H         PUBLIC        _Line_Start_XY
  C:CA40H         PUBLIC        _LCD_RegisterWrite
  D:00A8H         PUBLIC        IE
  C:B3F0H         PUBLIC        _gt9271_Send_Cfg
  C:80D7H         PUBLIC        Text_Demo
  C:AE44H         PUBLIC        _SFI_DMA_Transfer_Number
  C:CB0DH         PUBLIC        Text_Mode
  C:C684H         PUBLIC        MemWrite_Down_Top_Left_Right
  C:C673H         PUBLIC        MemWrite_Top_Down_Left_Right
  C:C662H         PUBLIC        MemWrite_Right_Left_Top_Down
  C:C651H         PUBLIC        MemWrite_Left_Right_Top_Down
  C:B4E9H         PUBLIC        _PIP_Window_Image_Start_XY
  C:D3EAH         PUBLIC        _Set_GPIO_A_In_Out
  C:C4D5H         PUBLIC        OVFI_Flag
  C:D4CAH         PUBLIC        HSCAN_R_to_L
  C:D4C0H         PUBLIC        HSCAN_L_to_R
  C:CAE0H         PUBLIC        ExtInterrupt_Debounce
  C:C5DAH         PUBLIC        RGB_16b_16bpp
  C:CF54H         PUBLIC        Select_PWM0_is_GPIO_C7
  C:CF45H         PUBLIC        Select_PWM1_is_ErrorFlag
  C:B986H         PUBLIC        _Goto_Pixel_XY
  C:D59AH         PUBLIC        Check_NO_Interrupt
  C:D582H         PUBLIC        Check_SDRAM_Ready
  C:415BH         PUBLIC        gImage_arrow_il
  B:00B0H.1       PUBLIC        SCL1
  C:D40EH         PUBLIC        _Set_GPIO_C_In_Out
  C:D19DH         PUBLIC        EMTIRQEN_Enable
  C:C445H         PUBLIC        _PIP_Image_Width
  C:CB49H         PUBLIC        Disable_ExtInterrupt_Input
  C:C286H         PUBLIC        Enable_PLL
  C:A7F5H         PUBLIC        Graphic_cursor_initial
  C:D426H         PUBLIC        _Set_GPIO_D_In_Out
  C:D3C6H         PUBLIC        _Font_Line_Distance
  C:ACC9H         PUBLIC        _Line_End_XY
  C:D43EH         PUBLIC        _Set_GPIO_E_In_Out
  C:D1ACH         PUBLIC        Reset_CPOL
  C:CC84H         PUBLIC        Mask_Vsync_Interrupt_Flag
  C:D456H         PUBLIC        _Set_GPIO_F_In_Out
  C:C91BH         PUBLIC        Font_Select_UserDefine_Mode
  C:D017H         PUBLIC        Start_PWM0
  C:B88AH         PUBLIC        _Ellipse_Radius_RxRy
  C:D2B1H         PUBLIC        Start_Triangle_Fill
  C:D4A2H         PUBLIC        Display_OFF
  C:19DBH         PUBLIC        f1
  C:CF9FH         PUBLIC        Start_PWM1
  C:D4DEH         PUBLIC        VSCAN_B_to_T
  C:D4D4H         PUBLIC        VSCAN_T_to_B
  C:265BH         PUBLIC        f2
  C:755BH         PUBLIC        GTP_CFG_DATA
  C:D18EH         PUBLIC        OVFIRQEN_Enable
BL51 BANKED LINKER/LOCATER V6.22                                                      07/02/2019  17:10:49  PAGE 38


  C:C761H         PUBLIC        Select_PIP1_Window_8bpp
  C:32DBH         PUBLIC        f3
  D:00B8H         PUBLIC        IP
  C:D2A4H         PUBLIC        _LCD_VSYNC_Pulse_Width
  C:C72EH         PUBLIC        Select_PIP2_Window_8bpp
  C:C6FBH         PUBLIC        Memory_Select_Color_Palette_RAM
  X:0000H         PUBLIC        DATA
  C:C6D9H         PUBLIC        Memory_Select_SDRAM
  C:C2D5H         PUBLIC        Check_Mem_WR_FIFO_not_Full
  C:B9E9H         PUBLIC        RA8876_SDRAM_initail
  C:D5D7H         PUBLIC        RA8876_I2CM_Read_With_Nack
  C:B5D7H         PUBLIC        Start_Circle_Square
  C:AB37H         PUBLIC        _LCD_Clear
  C:ADDDH         PUBLIC        _SFI_DMA_Destination_Start_Address
  C:B3A4H         PUBLIC        _Background_color_16M
  C:CE55H         PUBLIC        Idle_PDAT_Low
  C:C4B1H         PUBLIC        Rx_FIFO_Empty_Flag
  C:B6C0H         PUBLIC        _BTE_S0_Window_Start_XY
  C:CFBDH         PUBLIC        Enable_PWM0_Dead_Zone
  C:CE37H         PUBLIC        Idle_PCLK_Low
  C:D510H         PUBLIC        Power_Saving_Sleep_Mode
  C:BCEFH         PUBLIC        _BTE_S1_Window_Start_XY
  C:C48DH         PUBLIC        Tx_FIFO_Empty_Flag
  C:C90AH         PUBLIC        SPI_Master_FIFO_Data_Get
  C:CBFDH         PUBLIC        Clear_ExtInterrupt_Input_Flag
  C:B220H         PUBLIC        mono_Demo
  C:BDA0H         PUBLIC        _Foreground_color_256
  C:D5B2H         PUBLIC        Check_BTE_Busy
  C:CEDCH         PUBLIC        Disable_Text_Cursor
  C:CA59H         PUBLIC        RA8876_WakeUp
  C:CF36H         PUBLIC        Memory_Linear_Mode
  C:C695H         PUBLIC        ExtInterrupt_Input_Low_Level_Trigger
  D:00D8H         PUBLIC        CCON
  C:A9ADH         PUBLIC        _SdReadBlock
  C:7D97H         PUBLIC        Geometric
  C:C49FH         PUBLIC        Tx_FIFO_Full_Flag
  C:CCB1H         PUBLIC        Mask_PWM0_Interrupt_Flag
  C:8D05H         PUBLIC        App_Demo_Scrolling_Text
  C:D107H         PUBLIC        Select_SFI_0_DummyRead
  C:CCA2H         PUBLIC        Mask_PWM1_Interrupt_Flag
  C:CB3AH         PUBLIC        Enable_ExtInterrupt_Input
  C:A4FDH         PUBLIC        main
  C:AAC2H         PUBLIC        _gt9271_RD_Reg
  C:C01AH         PUBLIC        Font_Select_12x24_24x24
  C:BC62H         PUBLIC        _BTE_Destination_Window_Start_XY
  C:D2BEH         PUBLIC        Start_Circle_or_Ellipse_Fill
  C:D5C1H         PUBLIC        _Set_Graphic_Cursor_Color_1
  C:C376H         PUBLIC        GTFont_Select_GT21L16TW_GT21H16T1W
  C:C94EH         PUBLIC        Font_Select_16x32_32x32
  C:C8F9H         PUBLIC        Select_SFI_Dual_Mode0
  C:D283H         PUBLIC        _Set_Graphic_Cursor_Color_2
  C:CAC2H         PUBLIC        Interrupt_Active_Low
  C:AEABH         PUBLIC        _CGRAM_Start_address
  C:D134H         PUBLIC        Select_SFI_Dual_Mode1
  C:B4A1H         PUBLIC        _PIP_Display_Start_XY
  C:425BH         PUBLIC        gImage_pen_il
  C:D008H         PUBLIC        One_Shot_PWM0
BL51 BANKED LINKER/LOCATER V6.22                                                      07/02/2019  17:10:49  PAGE 39


  C:B84FH         PUBLIC        _Ellipse_Center_XY
  C:CDCEH         PUBLIC        HSYNC_High_Active
  C:CAFEH         PUBLIC        Graphic_Mode
  C:D1D9H         PUBLIC        Set_CPHA
  C:CF90H         PUBLIC        One_Shot_PWM1
  C:CA95H         PUBLIC        Disable_SFlash_SPI
  C:3F5BH         PUBLIC        gImage_busy_im
  C:91D4H         PUBLIC        gt9271_read_data
  C:B283H         PUBLIC        _SFI_DMA_Destination_Upper_Left_Corner
  C:CE0AH         PUBLIC        DE_High_Active
  C:D5D2H         PUBLIC        RA8876_I2CM_Read_With_Ack
  C:D071H         PUBLIC        BTE_S0_Color_24bpp
  C:C182H         PUBLIC        _Set_Timer0_Compare_Buffer
  C:B448H         PUBLIC        _Circle_Center_XY
  C:B2FEH         PUBLIC        Start_Triangle
  C:D170H         PUBLIC        nSS_Inactive
  C:C8D7H         PUBLIC        Select_SFI_8_DummyRead
  C:C32AH         PUBLIC        BTE_S1_Color_24bpp
  C:C8B5H         PUBLIC        BTE_S0_Color_16bpp
  C:C1B2H         PUBLIC        _Set_Timer1_Compare_Buffer
  C:D026H         PUBLIC        Stop_PWM0
  C:B55AH         PUBLIC        _LCD_Horizontal_Non_Display
  C:C6B7H         PUBLIC        ExtInterrupt_Input_Falling_Edge_Trigger
  C:C275H         PUBLIC        LCD_DataRead
  C:C4F9H         PUBLIC        RA8876_I2CM_Check_Slave_ACK
  C:C317H         PUBLIC        BTE_S1_Color_16bpp
  C:CFAEH         PUBLIC        Stop_PWM1
  B:00B0H.2       PUBLIC        PEN_INT
  B:0020H.0       PUBLIC        ack
  C:9F2CH         PUBLIC        Display_JPG_SDCARD
  C:D28AH         PUBLIC        start
  C:C433H         PUBLIC        _Main_Image_Width
  C:CCC0H         PUBLIC        Enable_Resume_Interrupt_Flag
  C:D251H         PUBLIC        Font_90_degree
  C:CDB0H         PUBLIC        Select_Main_Window_24bpp
  C:C596H         PUBLIC        RGB_8b_8bpp
  C:D080H         PUBLIC        BTE_Destination_Color_24bpp
  C:C71DH         PUBLIC        Select_Main_Window_16bpp
  C:CD65H         PUBLIC        Disable_PIP1
  D:0098H         PUBLIC        SCON
  C:A745H         PUBLIC        _SdWriteBlock
  C:93EEH         PUBLIC        gray
  C:BF71H         PUBLIC        _Delay10ms
  C:BD74H         PUBLIC        _S1_Constant_color_256
  C:C1E9H         PUBLIC        BTE_Destination_Color_16bpp
  C:BBD2H         PUBLIC        _Goto_Text_XY
  C:CECDH         PUBLIC        Enable_Text_Cursor
  C:D4B6H         PUBLIC        Color_Bar_OFF
  C:CD83H         PUBLIC        Disable_PIP2
  C:CAB3H         PUBLIC        Host_Bus_16bit
  D:0088H         PUBLIC        TCON
  C:C40EH         PUBLIC        SdRead
  C:A68CH         PUBLIC        _Show_picture1
  C:BB70H         PUBLIC        _BTE_Window_Size
  C:D26EH         PUBLIC        PDATA_Set_BGR
  C:D37EH         PUBLIC        PDATA_Set_BRG
  C:D260H         PUBLIC        PDATA_Set_GBR
BL51 BANKED LINKER/LOCATER V6.22                                                      07/02/2019  17:10:49  PAGE 40


  C:D372H         PUBLIC        PDATA_Set_GRB
  C:D366H         PUBLIC        PDATA_Set_RBG
  C:D4E8H         PUBLIC        PDATA_Set_RGB
  C:060BH         PUBLIC        ASCII_Table
  C:8734H         PUBLIC        App_Demo_Waveform
  C:D08FH         PUBLIC        Select_SFI_0
  C:BBA1H         PUBLIC        _Graphic_Cursor_XY
  C:CEFAH         PUBLIC        Disable_Text_Cursor_Blinking
  C:D215H         PUBLIC        Disable_Font_Alignment
  C:D09EH         PUBLIC        Select_SFI_1
  C:D062H         PUBLIC        Pattern_Format_16X16
  C:B1C4H         PUBLIC        _Goto_Linear_Addr
  C:CDECH         PUBLIC        VSYNC_High_Active
  C:AFDCH         PUBLIC        _gt9271_WR_Reg
  C:A356H         PUBLIC        DMA_Demo
  C:B358H         PUBLIC        _Foreground_color_16M
  C:B0A1H         PUBLIC        _BTE_S0_Memory_Start_Address
  C:C541H         PUBLIC        LCD_StatusRead
  C:C29CH         PUBLIC        _SPI_Master_FIFO_Data_Put
  C:B102H         PUBLIC        _BTE_S1_Memory_Start_Address
  C:D51AH         PUBLIC        Read_Interrupt_status
  C:BFDEH         PUBLIC        CGROM_Select_Internal_CGROM
  C:AF4EH         PUBLIC        _Active_Window_WH
  C:C242H         PUBLIC        _LCD_Vertical_Non_Display
  C:CCFCH         PUBLIC        Enable_DMA_Draw_BTE_Interrupt_Flag
  C:D1BBH         PUBLIC        Set_CPOL
  C:D143H         PUBLIC        Mask_SPI_Master_Interrupt_Flag
  C:C000H         PUBLIC        Start_Circle_or_Ellipse
  C:CD38H         PUBLIC        Disable_XDB15_8_PullUp
  C:CA86H         PUBLIC        Enable_SFlash_SPI
  C:D57AH         PUBLIC        Check_2D_Busy
  C:D5DCH         PUBLIC        RA8876_I2CM_Write_With_Start
  C:CEBEH         PUBLIC        Disable_Graphic_Cursor
  C:BEFAH         PUBLIC        _LCD_DataWrite
  C:D35AH         PUBLIC        master_ACK
  C:C09BH         PUBLIC        NextStep
  C:C9E7H         PUBLIC        Font_Height_X1
  C:D152H         PUBLIC        Select_nSS_drive_on_xnsfcs0
  C:D326H         PUBLIC        Start_Right_Down_Curve_Fill
  C:B630H         PUBLIC        _Background_color_65k
  C:C9F8H         PUBLIC        Font_Height_X2
  C:D161H         PUBLIC        Select_nSS_drive_on_xnsfcs1
  C:B163H         PUBLIC        _BTE_Destination_Memory_Start_Address
  C:C7C7H         PUBLIC        Memory_8bpp_Mode
  C:A890H         PUBLIC        RA8876_initial
  B:00B0H.5       PUBLIC        next
  C:CA09H         PUBLIC        Font_Height_X3
  C:D0BCH         PUBLIC        Select_SFI_DMA_Mode
  C:CB2BH         PUBLIC        Disable_Resume_Interrupt
  C:7615H         SYMBOL        _?ix1000
  C:C1FAH         PUBLIC        _RA8876_I2CM_Clock_Prescale
  C:BF2EH         PUBLIC        _Background_RGB
  C:CA1AH         PUBLIC        Font_Height_X4
  C:405BH         PUBLIC        gImage_no_im
  C:C52FH         PUBLIC        TOUCH_NAck
  C:D4FCH         PUBLIC        Power_Normal_Mode
  C:CA2BH         PUBLIC        Power_Saving_Status
BL51 BANKED LINKER/LOCATER V6.22                                                      07/02/2019  17:10:49  PAGE 41


  C:C124H         PUBLIC        _SdWrite
  C:D34DH         PUBLIC        RA8876_I2CM_Arbitration
  C:C350H         PUBLIC        BTE_S1_Color_8bit_Alpha
  C:CD56H         PUBLIC        Enable_PIP1
  C:CC66H         PUBLIC        Mask_ExtInterrupt_Input_Flag
  C:C783H         PUBLIC        Select_PIP1_Window_24bpp
  C:CD74H         PUBLIC        Enable_PIP2
  D:00E0H         PUBLIC        ACC
  C:D47AH         PUBLIC        stop
  C:D233H         PUBLIC        Font_Background_select_Color
  C:C750H         PUBLIC        Select_PIP2_Window_24bpp
  C:C772H         PUBLIC        Select_PIP1_Window_16bpp
  C:CCDEH         PUBLIC        Enable_I2CM_Interrupt_Flag
  C:D3D2H         PUBLIC        _Set_Font_to_Font_Width
  C:D224H         PUBLIC        Font_Background_select_Transparency
  C:CEEBH         PUBLIC        Enable_Text_Cursor_Blinking
  C:C73FH         PUBLIC        Select_PIP2_Window_16bpp
  C:D206H         PUBLIC        Enable_Font_Alignment
  C:C457H         PUBLIC        _Canvas_image_width
  C:CE82H         PUBLIC        Idle_HSYNC_High
  C:C5EBH         PUBLIC        RGB_16b_24bpp_mode1
  C:BEC3H         PUBLIC        IIC_ReadByte
  C:C5FCH         PUBLIC        RGB_16b_24bpp_mode2
  C:9C00H         PUBLIC        App_Demo_slide_frame_buffer
  C:D0E9H         PUBLIC        Select_SFI_Waveform_Mode_0
  C:BE22H         PUBLIC        _S1_Constant_color_16M
  C:D2FFH         PUBLIC        Start_Left_Down_Curve_Fill
  C:CE28H         PUBLIC        Idle_DE_High
  C:D5E1H         PUBLIC        RA8876_I2CM_Write
  C:B040H         PUBLIC        _PIP_Image_Start_Address
  C:D48EH         PUBLIC        PCLK_Falling
  C:CBA3H         PUBLIC        Disable_DMA_Draw_BTE_Interrupt
  C:AD72H         PUBLIC        SdInit
  C:C0B5H         PUBLIC        slave_ACK
  C:B6FDH         PUBLIC        _Active_Window_XY
  C:CA4AH         PUBLIC        RA8876_Sleep
  C:BAE9H         PUBLIC        _SFI_DMA_Source_Width
  C:D0F8H         PUBLIC        Select_SFI_Waveform_Mode_3
  C:D4F2H         PUBLIC        PDATA_IDLE_STATE
  C:CD29H         PUBLIC        Enable_XDB15_8_PullUp
  C:BD67H         PUBLIC        Start_Square_Fill
  C:CEAFH         PUBLIC        Enable_Graphic_Cursor
  C:CBEEH         PUBLIC        Clear_Resume_Interrupt_Flag
  C:7665H         PUBLIC        PIP_Demo
  C:C469H         PUBLIC        _BTE_Operation_Code
  B:0090H.7       PUBLIC        SD_CLK
  C:CCEDH         PUBLIC        Enable_Vsync_Interrupt_Flag
  C:B9D3H         PUBLIC        _delay_ms
  C:C33DH         PUBLIC        BTE_S1_Color_Constant
  C:BB09H         PUBLIC        _Circle_Radius_R
  C:CB1CH         PUBLIC        Enable_Resume_Interrupt
  C:D17FH         PUBLIC        nSS_Active
  C:D125H         PUBLIC        Select_SFI_Single_Mode
  C:D523H         PUBLIC        RA8876_I2CM_Receiver_Data
  C:D2F2H         PUBLIC        Start_Right_Down_Curve
  C:D52CH         PUBLIC        Read_GPIO_A_7_0
  C:D1F7H         PUBLIC        Clear_EMTI_Flag
BL51 BANKED LINKER/LOCATER V6.22                                                      07/02/2019  17:10:49  PAGE 42


  C:D5AAH         PUBLIC        Check_Busy_Draw
  C:17DBH         PUBLIC        pattern16x16_16bpp
  C:C036H         PUBLIC        _LCD_CmdWrite
  C:C421H         PUBLIC        RA8876_HW_Reset
  C:D5C8H         PUBLIC        LCD_WriteRAM_Prepare
  C:D535H         PUBLIC        Read_GPIO_B_7_0
  C:D396H         PUBLIC        _Set_Timer0_Dead_Zone_Length
  C:CEA0H         PUBLIC        Idle_VSYNC_High
  C:D498H         PUBLIC        Display_ON
  B:0090H.0       PUBLIC        SDA
  C:D53EH         PUBLIC        Read_GPIO_C_7_0
  C:D0DAH         PUBLIC        Select_SFI_32bit_Address
  C:D053H         PUBLIC        Pattern_Format_8X8
  C:CB67H         PUBLIC        Disable_I2CM_Interrupt
  C:BA22H         PUBLIC        _TOUCH_Read_Byte
  C:9604H         PUBLIC        BTE_Color_Expansion
  C:D547H         PUBLIC        Read_GPIO_D_7_0
  C:D0CBH         PUBLIC        Select_SFI_24bit_Address
  C:CF18H         PUBLIC        Select_Read_Data_Position
  B:00B0H.7       PUBLIC        rst
  C:C0CFH         PUBLIC        _IIC_WriteByte
  C:C08DH         PUBLIC        _delay_us
  C:D550H         PUBLIC        Read_GPIO_E_7_0
  C:C3FBH         PUBLIC        GTFont_Select_GT22L16A1Y
  C:CDBFH         PUBLIC        HSYNC_Low_Active
  C:CC2AH         PUBLIC        Clear_DMA_Draw_BTE_Interrupt_Flag
  C:D592H         PUBLIC        Check_Power_is_Saving
  C:9A1CH         PUBLIC        App_Demo_Alpha_Blending
  C:D559H         PUBLIC        Read_GPIO_F_7_0
  C:B72BH         PUBLIC        _Foreground_color_65k
  C:D1E8H         PUBLIC        Clear_OVFI_Flag
  C:D116H         PUBLIC        Select_SFI_24_DummyRead
  C:CFF9H         PUBLIC        Auto_Reload_PWM0
  C:C6C8H         PUBLIC        ExtInterrupt_Input_Rising_Edge_Trigger
  C:D58AH         PUBLIC        Check_Power_is_Normal
  C:C3C2H         PUBLIC        GTFont_Select_GT23L32S4W_GT23H32S4W
  C:C8E8H         PUBLIC        Select_SFI_16_DummyRead
  C:CF81H         PUBLIC        Auto_Reload_PWM1
  C:CDFBH         PUBLIC        DE_Low_Active
  C:D340H         PUBLIC        Check_Busy_SFI_DMA
  C:BF0CH         PUBLIC        _Foreground_RGB
  C:D3BAH         PUBLIC        _Set_GTFont_Decoder
  C:C2F1H         PUBLIC        _Set_PWM_Prescaler_1_to_256
  C:D3A2H         PUBLIC        _BTE_Alpha_Blending_Effect
  C:CB94H         PUBLIC        Enable_DMA_Draw_BTE_Interrupt
  C:CD1AH         PUBLIC        Enable_PWM0_Interrupt_Flag
  C:C5B8H         PUBLIC        RGB_8b_24bpp
  C:C3D5H         PUBLIC        GTFont_Select_GT20L24F6Y
  C:B93BH         PUBLIC        _SFI_DMA_Transfer_Width_Height
  C:C103H         PUBLIC        Select_PWM0_is_Core_Clock
  C:D2CBH         PUBLIC        Start_Left_Down_Curve
  C:CD0BH         PUBLIC        Enable_PWM1_Interrupt_Flag
  C:C5C9H         PUBLIC        RGB_16b_8bpp
  C:C5A7H         PUBLIC        RGB_8b_16bpp
  B:0090H.1       PUBLIC        SCL
  C:C39CH         PUBLIC        GTFont_Select_GT23L24T3Y_GT23H24T3Y
  C:C92CH         PUBLIC        CGROM_Select_Genitop_FontROM
BL51 BANKED LINKER/LOCATER V6.22                                                      07/02/2019  17:10:49  PAGE 43


  C:C4C3H         PUBLIC        Rx_FIFO_full_flag
  C:ABBEH         PUBLIC        _Canvas_Image_Start_address
  C:CB85H         PUBLIC        Disable_Vsync_Interrupt
  C:C048H         PUBLIC        RA8876_SW_Reset
  C:B763H         PUBLIC        _LCD_SetCursor
  C:D562H         PUBLIC        Check_Mem_WR_FIFO_Empty
  C:BF91H         PUBLIC        _Delay100ms
  C:8FA2H         PUBLIC        TPTEST
  C:7A3AH         PUBLIC        App_Demo_multi_frame_buffer
  C:C9A3H         PUBLIC        Font_Width_X1
  C:BA86H         PUBLIC        Start_Square
  C:D3F6H         PUBLIC        _Write_GPIO_A_7_0
  C:D5CDH         PUBLIC        RA8876_I2CM_Stop
  C:C9B4H         PUBLIC        Font_Width_X2
  C:D38AH         PUBLIC        _Blinking_Time_Frames
  C:BDF8H         PUBLIC        _PIP_Window_Width_Height
  C:B67FH         PUBLIC        _Main_Window_Start_XY
  C:AA38H         PUBLIC        _LCD_HorizontalWidth_VerticalHeight
  C:CD92H         PUBLIC        Select_PIP1_Parameter
  C:CC0CH         PUBLIC        Clear_I2CM_Interrupt_Flag
  C:435BH         PUBLIC        pic_80x80
  C:C151H         PUBLIC        _TOUCH_Send_Byte
  C:C3AFH         PUBLIC        GTFont_Select_GT23L24M1Z
  C:C9C5H         PUBLIC        Font_Width_X3
  C:C064H         PUBLIC        _Text_Cursor_H_V
  C:BC8CH         PUBLIC        _LCD_HSYNC_Start_Position
  C:CDA1H         PUBLIC        Select_PIP2_Parameter
  C:D41AH         PUBLIC        _Write_GPIO_C_7_0
  C:C3E8H         PUBLIC        GTFont_Select_GT21L24S1W
  C:C9D6H         PUBLIC        Font_Width_X4
  C:C47BH         PUBLIC        _BTE_S0_Image_Width
  C:C0E9H         PUBLIC        Select_PWM0
  C:CDDDH         PUBLIC        VSYNC_Low_Active
  C:D432H         PUBLIC        _Write_GPIO_D_7_0
  C:BF5FH         PUBLIC        _BTE_S1_Image_Width
  C:C882H         PUBLIC        Select_PWM1
  C:CF09H         PUBLIC        Select_Write_Data_Position
  C:AF80H         PUBLIC        _Main_Image_Start_Address
  C:B513H         PUBLIC        RA8876_PLL_Initial
  C:D44AH         PUBLIC        _Write_GPIO_E_7_0
  C:D319H         PUBLIC        Start_Right_Up_Curve_Fill
  C:CB58H         PUBLIC        Enable_I2CM_Interrupt
  C:D462H         PUBLIC        _Write_GPIO_F_7_0
  C:D402H         PUBLIC        _Write_GPIO_B_7_4
  C:BBFCH         PUBLIC        _Triangle_Point1_XY
  C:C25FH         PUBLIC        TOUCH_Wait_Ack
  X:0200H         PUBLIC        ts_event
  C:C19AH         PUBLIC        _Set_Timer0_Count_Buffer
  C:B79EH         PUBLIC        _Triangle_Point2_XY
  C:CE64H         PUBLIC        Idle_PDAT_High
  C:BA93H         PUBLIC        _S1_Constant_color_65k
  C:C1CAH         PUBLIC        _Set_Timer1_Count_Buffer
  C:B7D9H         PUBLIC        _Triangle_Point3_XY
  C:CE46H         PUBLIC        Idle_PCLK_High
  C:BFB1H         PUBLIC        _LCD_SetPoint
  C:A06EH         PUBLIC        _LCD_PutChar
  C:C389H         PUBLIC        GTFont_Select_GT23L16U2W
BL51 BANKED LINKER/LOCATER V6.22                                                      07/02/2019  17:10:49  PAGE 44


  C:B8C5H         PUBLIC        _Circle_Square_Radius_RxRy
  C:C7E9H         PUBLIC        Memory_24bpp_Mode
  C:C50BH         PUBLIC        RA8876_I2CM_Bus_Busy
  C:B929H         PUBLIC        _BTE_Destination_Image_Width
  C:C7D8H         PUBLIC        Memory_16bpp_Mode
  C:CAEFH         PUBLIC        ExtInterrupt_Nodebounce
  C:A1A2H         PUBLIC        _Draw_Big_Point
  C:C95FH         PUBLIC        Internal_CGROM_Select_ISOIEC8859_1
  C:CC1BH         PUBLIC        Clear_Vsync_Interrupt_Flag
  C:C51DH         PUBLIC        RA8876_I2CM_transmit_Progress
  C:C970H         PUBLIC        Internal_CGROM_Select_ISOIEC8859_2
  C:CBDFH         PUBLIC        Disable_PWM0_Interrupt
  C:C6A6H         PUBLIC        ExtInterrupt_Input_High_Level_Trigger
  C:D3DEH         PUBLIC        _RA8876_I2CM_Transmit_Data
  C:C981H         PUBLIC        Internal_CGROM_Select_ISOIEC8859_3
  C:CFEAH         PUBLIC        Disable_PWM0_Inverter
  C:CBC1H         PUBLIC        Disable_PWM1_Interrupt
  C:C992H         PUBLIC        Internal_CGROM_Select_ISOIEC8859_4
  C:D044H         PUBLIC        BTE_Disable
  C:CF72H         PUBLIC        Disable_PWM1_Inverter
  C:CC57H         PUBLIC        Mask_Resume_Interrupt_Flag
  C:D5A2H         PUBLIC        Check_Interrupt_Occur
  C:D46EH         PUBLIC        TOUCH_Ack
  C:C363H         PUBLIC        BTE_S1_Color_16bit_Alpha
  C:CB76H         PUBLIC        Enable_Vsync_Interrupt
  C:C212H         PUBLIC        TOUCH_Start
  C:CF27H         PUBLIC        Memory_XY_Mode
  C:D297H         PUBLIC        _LCD_VSYNC_Start_Position
  C:D4ACH         PUBLIC        Color_Bar_ON
  C:CAD1H         PUBLIC        Interrupt_Active_High
  C:C552H         PUBLIC        TFT_24bit
  C:D30CH         PUBLIC        Start_Left_Up_Curve_Fill
  C:CA77H         PUBLIC        RA8876_I2CM_Disable
  C:C574H         PUBLIC        TFT_16bit
  C:BC2CH         PUBLIC        _Square_Start_XY
  C:C2B2H         PUBLIC        Text_cursor_initial
  C:D242H         PUBLIC        Font_0_degree
  C:C563H         PUBLIC        TFT_18bit
  C:C794H         PUBLIC        Select_Graphic_Cursor_1
  D:00D0H         PUBLIC        PSW
  C:AC1FH         PUBLIC        TOUCH_Init
  C:BE9CH         PUBLIC        _SdCommand
  C:BB5BH         PUBLIC        Start_Line
  C:C171H         PUBLIC        Select_Graphic_Cursor_2
  C:CE73H         PUBLIC        Idle_HSYNC_Low
  C:D484H         PUBLIC        PCLK_Rising
  C:C7A5H         PUBLIC        Select_Graphic_Cursor_3
  C:C7B6H         PUBLIC        Select_Graphic_Cursor_4
  C:CE19H         PUBLIC        Idle_DE_Low
  C:D5BAH         PUBLIC        _LCD_RegisterRead
  C:C080H         SYMBOL        L?1041
  -------         PROC          L?1040
  -------         ENDPROC       L?1040
  C:C080H         SYMBOL        L?1041
  -------         PROC          _DELAY_US
  D:0006H         SYMBOL        i
  C:C08DH         LINE#         869
BL51 BANKED LINKER/LOCATER V6.22                                                      07/02/2019  17:10:49  PAGE 45


  C:C08DH         LINE#         870
  C:C08DH         LINE#         872
  C:C097H         LINE#         873
  C:C098H         LINE#         874
  C:C09AH         LINE#         876
  -------         ENDPROC       _DELAY_US
  C:B9CBH         SYMBOL        L?1008
  C:B9CFH         SYMBOL        L?1009
  -------         PROC          L?1007
  -------         ENDPROC       L?1007
  C:B9CBH         SYMBOL        L?1008
  C:B9CFH         SYMBOL        L?1009
  -------         PROC          _DELAY_MS
  D:0006H         SYMBOL        i
  -------         DO            
  D:0005H         SYMBOL        j
  -------         ENDDO         
  C:B9D3H         LINE#         878
  C:B9D3H         LINE#         879
  C:B9D3H         LINE#         880
  C:B9DDH         LINE#         881
  C:B9E8H         LINE#         882
  -------         ENDPROC       _DELAY_MS
  -------         PROC          _DELAY10MS
  X:0376H         SYMBOL        i
  C:BF71H         LINE#         885
  C:BF79H         LINE#         886
  C:BF87H         LINE#         887
  C:BF90H         LINE#         888
  -------         ENDPROC       _DELAY10MS
  -------         PROC          _DELAY100MS
  X:023AH         SYMBOL        i
  C:BF91H         LINE#         890
  C:BF99H         LINE#         891
  C:BFA7H         LINE#         892
  C:BFB0H         LINE#         893
  -------         ENDPROC       _DELAY100MS
  -------         PROC          NEXTSTEP
  C:C09BH         LINE#         895
  C:C09BH         LINE#         896
  C:C09BH         LINE#         897
  C:C09EH         LINE#         898
  C:C09EH         LINE#         899
  C:C0A5H         LINE#         900
  C:C0A7H         LINE#         901
  C:C0AAH         LINE#         902
  C:C0B1H         LINE#         903
  C:C0B4H         LINE#         904
  -------         ENDPROC       NEXTSTEP
  -------         PROC          START
  C:D28AH         LINE#         908
  C:D28AH         LINE#         909
  C:D28AH         LINE#         910
  C:D28CH         LINE#         911
  C:D28DH         LINE#         912
  C:D28FH         LINE#         913
  C:D290H         LINE#         914
BL51 BANKED LINKER/LOCATER V6.22                                                      07/02/2019  17:10:49  PAGE 46


  C:D292H         LINE#         915
  C:D293H         LINE#         916
  C:D295H         LINE#         917
  C:D296H         LINE#         919
  -------         ENDPROC       START
  -------         PROC          STOP
  C:D47AH         LINE#         922
  C:D47AH         LINE#         923
  C:D47AH         LINE#         924
  C:D47CH         LINE#         925
  C:D47DH         LINE#         926
  C:D47FH         LINE#         927
  C:D480H         LINE#         928
  C:D482H         LINE#         929
  C:D483H         LINE#         933
  -------         ENDPROC       STOP
  -------         PROC          MASTER_ACK
  B:0020H.1       SYMBOL        acknow
  C:D35AH         LINE#         937
  C:D35AH         LINE#         938
  C:D35EH         LINE#         939
  C:D35FH         LINE#         940
  C:D361H         LINE#         941
  C:D362H         LINE#         942
  C:D364H         LINE#         943
  C:D365H         LINE#         944
  -------         ENDPROC       MASTER_ACK
  -------         PROC          SLAVE_ACK
  -------         DO            
  D:0007H         SYMBOL        i
  -------         ENDDO         
  C:C0B5H         LINE#         949
  C:C0B5H         LINE#         950
  C:C0B7H         LINE#         951
  C:C0B8H         LINE#         952
  C:C0BAH         LINE#         953
  C:C0BBH         LINE#         954
  C:C0BDH         LINE#         955
  C:C0BEH         LINE#         956
  C:C0CAH         LINE#         957
  C:C0CBH         LINE#         958
  C:C0CDH         LINE#         959
  C:C0CEH         LINE#         960
  -------         ENDPROC       SLAVE_ACK
  -------         PROC          _IIC_WRITEBYTE
  D:0007H         SYMBOL        Byte
  -------         DO            
  D:0006H         SYMBOL        t
  -------         ENDDO         
  C:C0CFH         LINE#         964
  C:C0CFH         LINE#         965
  C:C0CFH         LINE#         966
  C:C0D1H         LINE#         967
  C:C0D2H         LINE#         968
  C:C0D6H         LINE#         969
  C:C0DAH         LINE#         970
  C:C0DBH         LINE#         971
BL51 BANKED LINKER/LOCATER V6.22                                                      07/02/2019  17:10:49  PAGE 47


  C:C0DDH         LINE#         972
  C:C0DEH         LINE#         973
  C:C0E0H         LINE#         974
  C:C0E1H         LINE#         976
  C:C0E6H         LINE#         977
  -------         ENDPROC       _IIC_WRITEBYTE
  -------         PROC          IIC_READBYTE
  -------         DO            
  D:0006H         SYMBOL        t
  D:0007H         SYMBOL        read_data
  -------         ENDDO         
  C:BEC3H         LINE#         981
  C:BEC3H         LINE#         982
  C:BEC5H         LINE#         983
  C:BEC7H         LINE#         984
  C:BEC8H         LINE#         985
  C:BECAH         LINE#         986
  C:BECBH         LINE#         987
  C:BECCH         LINE#         988
  C:BECDH         LINE#         989
  C:BECFH         LINE#         990
  C:BED0H         LINE#         991
  C:BED4H         LINE#         992
  C:BED7H         LINE#         993
  C:BEDAH         LINE#         994
  C:BEDCH         LINE#         995
  C:BEE1H         LINE#         997
  C:BEE8H         LINE#         999
  C:BEE8H         LINE#         1000
  -------         ENDPROC       IIC_READBYTE
  C:C02BH         SYMBOL        L?1015
  -------         PROC          L?1014
  -------         ENDPROC       L?1014
  C:C02BH         SYMBOL        L?1015
  -------         PROC          _LCD_CMDWRITE
  D:0005H         SYMBOL        cmd
  C:C036H         LINE#         1003
  C:C038H         LINE#         1004
  C:C038H         LINE#         1005
  C:C03BH         LINE#         1006
  C:C040H         LINE#         1007
  C:C045H         LINE#         1008
  -------         ENDPROC       _LCD_CMDWRITE
  -------         PROC          L?0990
  -------         ENDPROC       L?0990
  -------         PROC          _LCD_DATAWRITE
  D:0005H         SYMBOL        Data
  C:BEFAH         LINE#         1012
  C:BEFCH         LINE#         1013
  C:BEFCH         LINE#         1014
  C:BEFFH         LINE#         1015
  C:BF04H         LINE#         1016
  C:BF09H         LINE#         1017
  -------         ENDPROC       _LCD_DATAWRITE
  C:C270H         SYMBOL        L?0957
  -------         PROC          L?0956
  -------         ENDPROC       L?0956
BL51 BANKED LINKER/LOCATER V6.22                                                      07/02/2019  17:10:49  PAGE 48


  C:C270H         SYMBOL        L?0957
  -------         PROC          LCD_DATAREAD
  -------         DO            
  D:0007H         SYMBOL        Data
  -------         ENDDO         
  C:C275H         LINE#         1021
  C:C275H         LINE#         1022
  C:C275H         LINE#         1025
  C:C278H         LINE#         1026
  C:C27DH         LINE#         1027
  C:C27FH         LINE#         1028
  C:C282H         LINE#         1029
  C:C285H         LINE#         1031
  C:C285H         LINE#         1032
  -------         ENDPROC       LCD_DATAREAD
  -------         PROC          LCD_STATUSREAD
  -------         DO            
  D:0007H         SYMBOL        Data
  -------         ENDDO         
  C:C541H         LINE#         1036
  C:C541H         LINE#         1037
  C:C541H         LINE#         1040
  C:C544H         LINE#         1041
  C:C549H         LINE#         1042
  C:C54BH         LINE#         1043
  C:C54EH         LINE#         1044
  C:C551H         LINE#         1046
  C:C551H         LINE#         1047
  -------         ENDPROC       LCD_STATUSREAD
  -------         PROC          L?1044
  -------         ENDPROC       L?1044
  -------         PROC          _LCD_REGISTERWRITE
  D:0007H         SYMBOL        Cmd
  D:0004H         SYMBOL        Data
  C:CA40H         LINE#         1050
  C:CA42H         LINE#         1051
  C:CA42H         LINE#         1052
  C:CA45H         LINE#         1053
  -------         ENDPROC       _LCD_REGISTERWRITE
  -------         PROC          _LCD_REGISTERREAD
  D:0007H         SYMBOL        Cmd
  -------         DO            
  D:0007H         SYMBOL        temp
  -------         ENDDO         
  C:D5BAH         LINE#         1056
  C:D5BAH         LINE#         1057
  C:D5BAH         LINE#         1060
  C:D5BDH         LINE#         1061
  C:D5C0H         LINE#         1062
  C:D5C0H         LINE#         1063
  -------         ENDPROC       _LCD_REGISTERREAD
  -------         PROC          LCD_WRITERAM_PREPARE
  C:D5C8H         LINE#         1065
  C:D5C8H         LINE#         1066
  C:D5C8H         LINE#         1067
  -------         ENDPROC       LCD_WRITERAM_PREPARE
  -------         PROC          RA8876_HW_RESET
BL51 BANKED LINKER/LOCATER V6.22                                                      07/02/2019  17:10:49  PAGE 49


  C:C421H         LINE#         1070
  C:C421H         LINE#         1071
  C:C421H         LINE#         1073
  C:C423H         LINE#         1074
  C:C42AH         LINE#         1075
  C:C42CH         LINE#         1076
  -------         ENDPROC       RA8876_HW_RESET
  -------         PROC          _LCD_SETPOINT
  D:0006H         SYMBOL        x
  D:0004H         SYMBOL        y
  X:024CH         SYMBOL        point
  C:BFB1H         LINE#         1080
  C:BFB9H         LINE#         1081
  C:BFB9H         LINE#         1082
  C:BFBCH         LINE#         1083
  C:BFBFH         LINE#         1084
  C:BFC8H         LINE#         1085
  -------         ENDPROC       _LCD_SETPOINT
  -------         PROC          _LCD_PUTCHAR
  X:023DH         SYMBOL        x
  X:023FH         SYMBOL        y
  X:0241H         SYMBOL        c
  X:0242H         SYMBOL        charColor
  X:0244H         SYMBOL        bkColor
  -------         DO            
  X:0246H         SYMBOL        i
  X:0248H         SYMBOL        j
  X:024AH         SYMBOL        tmp_char
  -------         ENDDO         
  C:A06EH         LINE#         1089
  C:A07FH         LINE#         1090
  C:A07FH         LINE#         1091
  C:A086H         LINE#         1092
  C:A08AH         LINE#         1094
  C:A08EH         LINE#         1096
  C:A0A7H         LINE#         1097
  C:A0A7H         LINE#         1098
  C:A0D6H         LINE#         1099
  C:A0F0H         LINE#         1100
  C:A0F0H         LINE#         1102
  C:A107H         LINE#         1103
  C:A107H         LINE#         1104
  C:A12FH         LINE#         1105
  C:A131H         LINE#         1107
  C:A131H         LINE#         1108
  C:A161H         LINE#         1109
  C:A161H         LINE#         1110
  C:A172H         LINE#         1111
  C:A183H         LINE#         1112
  -------         ENDPROC       _LCD_PUTCHAR
  -------         PROC          _LCD_DISPLAYSTRING
  X:022EH         SYMBOL        X
  X:0230H         SYMBOL        Y
  X:0232H         SYMBOL        ptr
  X:0235H         SYMBOL        charColor
  X:0237H         SYMBOL        bkColor
  -------         DO            
BL51 BANKED LINKER/LOCATER V6.22                                                      07/02/2019  17:10:49  PAGE 50


  X:0239H         SYMBOL        i
  -------         ENDDO         
  C:A435H         LINE#         1115
  C:A44CH         LINE#         1116
  C:A44CH         LINE#         1117
  C:A456H         LINE#         1120
  C:A491H         LINE#         1121
  C:A491H         LINE#         1123
  C:A4C2H         LINE#         1125
  C:A4D0H         LINE#         1127
  C:A4DAH         LINE#         1129
  C:A4F9H         LINE#         1130
  C:A4FCH         LINE#         1131
  -------         ENDPROC       _LCD_DISPLAYSTRING
  -------         PROC          _LCD_SETCURSOR
  X:024EH         SYMBOL        Xpos
  D:0002H         SYMBOL        Ypos
  C:B763H         LINE#         1138
  C:B76FH         LINE#         1139
  C:B76FH         LINE#         1140
  C:B774H         LINE#         1141
  C:B77DH         LINE#         1142
  C:B782H         LINE#         1143
  C:B78AH         LINE#         1144
  C:B78FH         LINE#         1145
  C:B794H         LINE#         1146
  C:B799H         LINE#         1147
  -------         ENDPROC       _LCD_SETCURSOR
  -------         PROC          _LCD_CLEAR
  X:0350H         SYMBOL        Color
  -------         DO            
  X:0352H         SYMBOL        index
  -------         ENDDO         
  C:AB37H         LINE#         1153
  C:AB3FH         LINE#         1154
  C:AB3FH         LINE#         1155
  C:AB47H         LINE#         1157
  C:AB4FH         LINE#         1159
  C:AB52H         LINE#         1161
  C:AB78H         LINE#         1162
  C:AB78H         LINE#         1163
  C:AB81H         LINE#         1164
  C:AB89H         LINE#         1165
  C:ABAAH         LINE#         1167
  -------         ENDPROC       _LCD_CLEAR
  -------         PROC          RA8876_INITIAL
  C:A890H         LINE#         1172
  C:A890H         LINE#         1173
  C:A890H         LINE#         1175
  C:A893H         LINE#         1176
  C:A896H         LINE#         1177
  C:A899H         LINE#         1181
  C:A89CH         LINE#         1182
  C:A89FH         LINE#         1183
  C:A8A2H         LINE#         1185
  C:A8A5H         LINE#         1187
  C:A8A8H         LINE#         1190
BL51 BANKED LINKER/LOCATER V6.22                                                      07/02/2019  17:10:49  PAGE 51


  C:A8ABH         LINE#         1191
  C:A8AEH         LINE#         1194
  C:A8B1H         LINE#         1195
  C:A8B4H         LINE#         1196
  C:A8B7H         LINE#         1199
  C:A8BAH         LINE#         1200
  C:A8BDH         LINE#         1202
  C:A8C0H         LINE#         1204
  C:A8C3H         LINE#         1205
  C:A8CEH         LINE#         1207
  C:A8D5H         LINE#         1208
  C:A8DCH         LINE#         1209
  C:A8E3H         LINE#         1210
  C:A8EAH         LINE#         1211
  C:A8F1H         LINE#         1212
  C:A8F8H         LINE#         1215
  C:A8FBH         LINE#         1216
  C:A8FEH         LINE#         1217
  C:A905H         LINE#         1218
  C:A908H         LINE#         1219
  C:A90BH         LINE#         1220
  C:A912H         LINE#         1221
  C:A915H         LINE#         1222
  C:A918H         LINE#         1224
  C:A91BH         LINE#         1225
  C:A91EH         LINE#         1226
  -------         ENDPROC       RA8876_INITIAL
  -------         PROC          RA8876_PLL_INITIAL
  C:B513H         LINE#         1231
  C:B513H         LINE#         1232
  C:B513H         LINE#         1234
  C:B513H         LINE#         1235
  C:B513H         LINE#         1236
  C:B513H         LINE#         1237
  C:B513H         LINE#         1238
  C:B513H         LINE#         1239
  C:B513H         LINE#         1240
  C:B513H         LINE#         1241
  C:B51AH         LINE#         1242
  C:B521H         LINE#         1243
  C:B521H         LINE#         1244
  C:B521H         LINE#         1245
  C:B521H         LINE#         1246
  C:B521H         LINE#         1247
  C:B521H         LINE#         1248
  C:B521H         LINE#         1249
  C:B521H         LINE#         1250
  C:B521H         LINE#         1251
  C:B521H         LINE#         1252
  C:B521H         LINE#         1253
  C:B521H         LINE#         1254
  C:B521H         LINE#         1255
  C:B521H         LINE#         1256
  C:B521H         LINE#         1257
  C:B521H         LINE#         1258
  C:B521H         LINE#         1262
  C:B521H         LINE#         1263
BL51 BANKED LINKER/LOCATER V6.22                                                      07/02/2019  17:10:49  PAGE 52


  C:B521H         LINE#         1264
  C:B521H         LINE#         1265
  C:B521H         LINE#         1266
  C:B521H         LINE#         1267
  C:B521H         LINE#         1268
  C:B521H         LINE#         1269
  C:B528H         LINE#         1270
  C:B52FH         LINE#         1271
  C:B52FH         LINE#         1272
  C:B52FH         LINE#         1273
  C:B52FH         LINE#         1274
  C:B52FH         LINE#         1275
  C:B52FH         LINE#         1276
  C:B52FH         LINE#         1277
  C:B52FH         LINE#         1278
  C:B52FH         LINE#         1279
  C:B52FH         LINE#         1280
  C:B52FH         LINE#         1281
  C:B52FH         LINE#         1285
  C:B52FH         LINE#         1286
  C:B52FH         LINE#         1287
  C:B52FH         LINE#         1288
  C:B52FH         LINE#         1289
  C:B52FH         LINE#         1290
  C:B52FH         LINE#         1291
  C:B52FH         LINE#         1292
  C:B536H         LINE#         1293
  C:B53DH         LINE#         1294
  C:B53DH         LINE#         1295
  C:B53DH         LINE#         1296
  C:B53DH         LINE#         1297
  C:B53DH         LINE#         1298
  C:B53DH         LINE#         1299
  C:B53DH         LINE#         1300
  C:B53DH         LINE#         1301
  C:B53DH         LINE#         1302
  C:B53DH         LINE#         1303
  C:B53DH         LINE#         1304
  C:B53DH         LINE#         1306
  C:B542H         LINE#         1307
  C:B547H         LINE#         1308
  C:B54EH         LINE#         1309
  C:B553H         LINE#         1312
  -------         ENDPROC       RA8876_PLL_INITIAL
  -------         PROC          RA8876_SDRAM_INITAIL
  -------         DO            
  D:0002H         SYMBOL        sdram_itv
  -------         ENDDO         
  C:B9E9H         LINE#         1320
  C:B9E9H         LINE#         1321
  C:B9E9H         LINE#         1417
  C:B9F0H         LINE#         1418
  C:B9F7H         LINE#         1420
  C:B9FBH         LINE#         1422
  C:BA03H         LINE#         1424
  C:BA0AH         LINE#         1425
  C:BA11H         LINE#         1427
BL51 BANKED LINKER/LOCATER V6.22                                                      07/02/2019  17:10:49  PAGE 53


  C:BA18H         LINE#         1472
  C:BA1BH         LINE#         1474
  -------         ENDPROC       RA8876_SDRAM_INITAIL
  C:C2D0H         SYMBOL        L?1018
  C:C2D1H         SYMBOL        L?1019
  -------         PROC          L?1017
  -------         ENDPROC       L?1017
  C:C2D0H         SYMBOL        L?1018
  C:C2D1H         SYMBOL        L?1019
  -------         PROC          CHECK_MEM_WR_FIFO_NOT_FULL
  C:C2D5H         LINE#         1482
  C:C2D5H         LINE#         1483
  C:C2D5H         LINE#         1487
  C:C2D5H         LINE#         1489
  C:C2DCH         LINE#         1490
  -------         ENDPROC       CHECK_MEM_WR_FIFO_NOT_FULL
  -------         PROC          CHECK_MEM_WR_FIFO_EMPTY
  C:D562H         LINE#         1491
  C:D562H         LINE#         1492
  C:D562H         LINE#         1496
  C:D562H         LINE#         1498
  C:D569H         LINE#         1499
  -------         ENDPROC       CHECK_MEM_WR_FIFO_EMPTY
  -------         PROC          CHECK_MEM_RD_FIFO_NOT_FULL
  C:D56AH         LINE#         1500
  C:D56AH         LINE#         1501
  C:D56AH         LINE#         1505
  C:D56AH         LINE#         1507
  C:D571H         LINE#         1508
  -------         ENDPROC       CHECK_MEM_RD_FIFO_NOT_FULL
  -------         PROC          CHECK_MEM_RD_FIFO_NOT_EMPTY
  C:D572H         LINE#         1509
  C:D572H         LINE#         1510
  C:D572H         LINE#         1515
  C:D572H         LINE#         1517
  C:D579H         LINE#         1518
  -------         ENDPROC       CHECK_MEM_RD_FIFO_NOT_EMPTY
  -------         PROC          CHECK_2D_BUSY
  C:D57AH         LINE#         1519
  C:D57AH         LINE#         1520
  C:D57AH         LINE#         1522
  C:D57AH         LINE#         1523
  C:D581H         LINE#         1525
  -------         ENDPROC       CHECK_2D_BUSY
  -------         PROC          CHECK_SDRAM_READY
  -------         DO            
  D:0007H         SYMBOL        temp
  -------         ENDDO         
  C:D582H         LINE#         1526
  C:D582H         LINE#         1527
  C:D582H         LINE#         1532
  C:D582H         LINE#         1533
  C:D585H         LINE#         1534
  C:D589H         LINE#         1535
  -------         ENDPROC       CHECK_SDRAM_READY
  -------         PROC          POWER_SAVING_STATUS
  -------         DO            
BL51 BANKED LINKER/LOCATER V6.22                                                      07/02/2019  17:10:49  PAGE 54


  D:0005H         SYMBOL        temp
  -------         ENDDO         
  C:CA2BH         LINE#         1538
  C:CA2BH         LINE#         1539
  C:CA2BH         LINE#         1542
  C:CA32H         LINE#         1543
  C:CA36H         LINE#         1545
  C:CA38H         LINE#         1547
  C:CA3AH         LINE#         1548
  -------         ENDPROC       POWER_SAVING_STATUS
  -------         PROC          CHECK_POWER_IS_NORMAL
  C:D58AH         LINE#         1551
  C:D58AH         LINE#         1552
  C:D58AH         LINE#         1556
  C:D58AH         LINE#         1558
  C:D591H         LINE#         1559
  -------         ENDPROC       CHECK_POWER_IS_NORMAL
  -------         PROC          CHECK_POWER_IS_SAVING
  C:D592H         LINE#         1560
  C:D592H         LINE#         1561
  C:D592H         LINE#         1565
  C:D592H         LINE#         1567
  C:D599H         LINE#         1568
  -------         ENDPROC       CHECK_POWER_IS_SAVING
  -------         PROC          CHECK_NO_INTERRUPT
  C:D59AH         LINE#         1569
  C:D59AH         LINE#         1570
  C:D59AH         LINE#         1575
  C:D59AH         LINE#         1577
  C:D5A1H         LINE#         1578
  -------         ENDPROC       CHECK_NO_INTERRUPT
  -------         PROC          CHECK_INTERRUPT_OCCUR
  C:D5A2H         LINE#         1579
  C:D5A2H         LINE#         1580
  C:D5A2H         LINE#         1585
  C:D5A2H         LINE#         1587
  C:D5A9H         LINE#         1588
  -------         ENDPROC       CHECK_INTERRUPT_OCCUR
  -------         PROC          CHECK_BUSY_DRAW
  -------         DO            
  D:0007H         SYMBOL        temp
  -------         ENDDO         
  C:D5AAH         LINE#         1590
  C:D5AAH         LINE#         1591
  C:D5AAH         LINE#         1600
  C:D5AAH         LINE#         1601
  C:D5ADH         LINE#         1602
  C:D5B1H         LINE#         1623
  -------         ENDPROC       CHECK_BUSY_DRAW
  -------         PROC          RA8876_SW_RESET
  -------         DO            
  D:0004H         SYMBOL        temp
  -------         ENDDO         
  C:C048H         LINE#         1627
  C:C048H         LINE#         1628
  C:C048H         LINE#         1631
  C:C04DH         LINE#         1632
BL51 BANKED LINKER/LOCATER V6.22                                                      07/02/2019  17:10:49  PAGE 55


  C:C052H         LINE#         1633
  C:C056H         LINE#         1634
  C:C05AH         LINE#         1637
  C:C05AH         LINE#         1638
  C:C05FH         LINE#         1639
  C:C05FH         LINE#         1640
  C:C063H         LINE#         1641
  -------         ENDPROC       RA8876_SW_RESET
  -------         PROC          ENABLE_PLL
  -------         DO            
  D:0007H         SYMBOL        temp
  -------         ENDDO         
  C:C286H         LINE#         1644
  C:C286H         LINE#         1645
  C:C286H         LINE#         1649
  C:C28BH         LINE#         1650
  C:C28EH         LINE#         1651
  C:C292H         LINE#         1652
  C:C295H         LINE#         1654
  -------         ENDPROC       ENABLE_PLL
  -------         PROC          RA8876_SLEEP
  -------         DO            
  D:0007H         SYMBOL        temp
  -------         ENDDO         
  C:CA4AH         LINE#         1656
  C:CA4AH         LINE#         1657
  C:CA4AH         LINE#         1661
  C:CA4FH         LINE#         1662
  C:CA52H         LINE#         1663
  C:CA56H         LINE#         1664
  -------         ENDPROC       RA8876_SLEEP
  -------         PROC          RA8876_WAKEUP
  -------         DO            
  D:0007H         SYMBOL        temp
  -------         ENDDO         
  C:CA59H         LINE#         1666
  C:CA59H         LINE#         1667
  C:CA59H         LINE#         1671
  C:CA5EH         LINE#         1672
  C:CA61H         LINE#         1673
  C:CA65H         LINE#         1674
  -------         ENDPROC       RA8876_WAKEUP
  -------         PROC          TFT_24BIT
  -------         DO            
  D:0007H         SYMBOL        temp
  -------         ENDDO         
  C:C552H         LINE#         1677
  C:C552H         LINE#         1678
  C:C552H         LINE#         1684
  C:C557H         LINE#         1685
  C:C55AH         LINE#         1686
  C:C55DH         LINE#         1687
  C:C560H         LINE#         1688
  -------         ENDPROC       TFT_24BIT
  -------         PROC          TFT_18BIT
  -------         DO            
  D:0007H         SYMBOL        temp
BL51 BANKED LINKER/LOCATER V6.22                                                      07/02/2019  17:10:49  PAGE 56


  -------         ENDDO         
  C:C563H         LINE#         1690
  C:C563H         LINE#         1691
  C:C563H         LINE#         1697
  C:C568H         LINE#         1698
  C:C56BH         LINE#         1699
  C:C56EH         LINE#         1700
  C:C571H         LINE#         1701
  -------         ENDPROC       TFT_18BIT
  -------         PROC          TFT_16BIT
  -------         DO            
  D:0007H         SYMBOL        temp
  -------         ENDDO         
  C:C574H         LINE#         1703
  C:C574H         LINE#         1704
  C:C574H         LINE#         1710
  C:C579H         LINE#         1711
  C:C57CH         LINE#         1712
  C:C57FH         LINE#         1713
  C:C582H         LINE#         1714
  -------         ENDPROC       TFT_16BIT
  -------         PROC          TFT_LVDS
  -------         DO            
  D:0007H         SYMBOL        temp
  -------         ENDDO         
  C:C585H         LINE#         1716
  C:C585H         LINE#         1717
  C:C585H         LINE#         1723
  C:C58AH         LINE#         1724
  C:C58DH         LINE#         1725
  C:C590H         LINE#         1726
  C:C593H         LINE#         1727
  -------         ENDPROC       TFT_LVDS
  -------         PROC          RA8876_I2CM_ENABLE
  -------         DO            
  D:0007H         SYMBOL        temp
  -------         ENDDO         
  C:CA68H         LINE#         1730
  C:CA68H         LINE#         1731
  C:CA68H         LINE#         1736
  C:CA6DH         LINE#         1737
  C:CA70H         LINE#         1738
  C:CA74H         LINE#         1739
  -------         ENDPROC       RA8876_I2CM_ENABLE
  -------         PROC          RA8876_I2CM_DISABLE
  -------         DO            
  D:0007H         SYMBOL        temp
  -------         ENDDO         
  C:CA77H         LINE#         1742
  C:CA77H         LINE#         1743
  C:CA77H         LINE#         1748
  C:CA7CH         LINE#         1749
  C:CA7FH         LINE#         1750
  C:CA83H         LINE#         1751
  -------         ENDPROC       RA8876_I2CM_DISABLE
  -------         PROC          ENABLE_SFLASH_SPI
  -------         DO            
BL51 BANKED LINKER/LOCATER V6.22                                                      07/02/2019  17:10:49  PAGE 57


  D:0007H         SYMBOL        temp
  -------         ENDDO         
  C:CA86H         LINE#         1754
  C:CA86H         LINE#         1755
  C:CA86H         LINE#         1760
  C:CA8BH         LINE#         1761
  C:CA8EH         LINE#         1762
  C:CA92H         LINE#         1763
  -------         ENDPROC       ENABLE_SFLASH_SPI
  -------         PROC          DISABLE_SFLASH_SPI
  -------         DO            
  D:0007H         SYMBOL        temp
  -------         ENDDO         
  C:CA95H         LINE#         1766
  C:CA95H         LINE#         1767
  C:CA95H         LINE#         1772
  C:CA9AH         LINE#         1773
  C:CA9DH         LINE#         1774
  C:CAA1H         LINE#         1775
  -------         ENDPROC       DISABLE_SFLASH_SPI
  -------         PROC          HOST_BUS_8BIT
  -------         DO            
  D:0007H         SYMBOL        temp
  -------         ENDDO         
  C:CAA4H         LINE#         1777
  C:CAA4H         LINE#         1778
  C:CAA4H         LINE#         1783
  C:CAA9H         LINE#         1784
  C:CAACH         LINE#         1785
  C:CAB0H         LINE#         1786
  -------         ENDPROC       HOST_BUS_8BIT
  -------         PROC          HOST_BUS_16BIT
  -------         DO            
  D:0007H         SYMBOL        temp
  -------         ENDDO         
  C:CAB3H         LINE#         1788
  C:CAB3H         LINE#         1789
  C:CAB3H         LINE#         1794
  C:CAB8H         LINE#         1795
  C:CABBH         LINE#         1796
  C:CABFH         LINE#         1797
  -------         ENDPROC       HOST_BUS_16BIT
  -------         PROC          RGB_8B_8BPP
  -------         DO            
  D:0007H         SYMBOL        temp
  -------         ENDDO         
  C:C596H         LINE#         1802
  C:C596H         LINE#         1803
  C:C596H         LINE#         1805
  C:C59BH         LINE#         1806
  C:C59EH         LINE#         1807
  C:C5A1H         LINE#         1808
  C:C5A4H         LINE#         1809
  -------         ENDPROC       RGB_8B_8BPP
  -------         PROC          RGB_8B_16BPP
  -------         DO            
  D:0007H         SYMBOL        temp
BL51 BANKED LINKER/LOCATER V6.22                                                      07/02/2019  17:10:49  PAGE 58


  -------         ENDDO         
  C:C5A7H         LINE#         1811
  C:C5A7H         LINE#         1812
  C:C5A7H         LINE#         1814
  C:C5ACH         LINE#         1815
  C:C5AFH         LINE#         1816
  C:C5B2H         LINE#         1817
  C:C5B5H         LINE#         1818
  -------         ENDPROC       RGB_8B_16BPP
  -------         PROC          RGB_8B_24BPP
  -------         DO            
  D:0007H         SYMBOL        temp
  -------         ENDDO         
  C:C5B8H         LINE#         1820
  C:C5B8H         LINE#         1821
  C:C5B8H         LINE#         1823
  C:C5BDH         LINE#         1824
  C:C5C0H         LINE#         1825
  C:C5C3H         LINE#         1826
  C:C5C6H         LINE#         1827
  -------         ENDPROC       RGB_8B_24BPP
  -------         PROC          RGB_16B_8BPP
  -------         DO            
  D:0007H         SYMBOL        temp
  -------         ENDDO         
  C:C5C9H         LINE#         1830
  C:C5C9H         LINE#         1831
  C:C5C9H         LINE#         1833
  C:C5CEH         LINE#         1834
  C:C5D1H         LINE#         1835
  C:C5D4H         LINE#         1836
  C:C5D7H         LINE#         1837
  -------         ENDPROC       RGB_16B_8BPP
  -------         PROC          RGB_16B_16BPP
  -------         DO            
  D:0007H         SYMBOL        temp
  -------         ENDDO         
  C:C5DAH         LINE#         1839
  C:C5DAH         LINE#         1840
  C:C5DAH         LINE#         1842
  C:C5DFH         LINE#         1843
  C:C5E2H         LINE#         1844
  C:C5E5H         LINE#         1845
  C:C5E8H         LINE#         1846
  -------         ENDPROC       RGB_16B_16BPP
  -------         PROC          RGB_16B_24BPP_MODE1
  -------         DO            
  D:0007H         SYMBOL        temp
  -------         ENDDO         
  C:C5EBH         LINE#         1848
  C:C5EBH         LINE#         1849
  C:C5EBH         LINE#         1851
  C:C5F0H         LINE#         1852
  C:C5F3H         LINE#         1853
  C:C5F6H         LINE#         1854
  C:C5F9H         LINE#         1855
  -------         ENDPROC       RGB_16B_24BPP_MODE1
BL51 BANKED LINKER/LOCATER V6.22                                                      07/02/2019  17:10:49  PAGE 59


  -------         PROC          RGB_16B_24BPP_MODE2
  -------         DO            
  D:0007H         SYMBOL        temp
  -------         ENDDO         
  C:C5FCH         LINE#         1857
  C:C5FCH         LINE#         1858
  C:C5FCH         LINE#         1860
  C:C601H         LINE#         1861
  C:C604H         LINE#         1862
  C:C607H         LINE#         1863
  C:C60AH         LINE#         1864
  -------         ENDPROC       RGB_16B_24BPP_MODE2
  -------         PROC          MEMREAD_LEFT_RIGHT_TOP_DOWN
  -------         DO            
  D:0007H         SYMBOL        temp
  -------         ENDDO         
  C:C60DH         LINE#         1867
  C:C60DH         LINE#         1868
  C:C60DH         LINE#         1870
  C:C612H         LINE#         1871
  C:C615H         LINE#         1872
  C:C618H         LINE#         1873
  C:C61BH         LINE#         1874
  -------         ENDPROC       MEMREAD_LEFT_RIGHT_TOP_DOWN
  -------         PROC          MEMREAD_RIGHT_LEFT_TOP_DOWN
  -------         DO            
  D:0007H         SYMBOL        temp
  -------         ENDDO         
  C:C61EH         LINE#         1876
  C:C61EH         LINE#         1877
  C:C61EH         LINE#         1879
  C:C623H         LINE#         1880
  C:C626H         LINE#         1881
  C:C629H         LINE#         1882
  C:C62CH         LINE#         1883
  -------         ENDPROC       MEMREAD_RIGHT_LEFT_TOP_DOWN
  -------         PROC          MEMREAD_TOP_DOWN_LEFT_RIGHT
  -------         DO            
  D:0007H         SYMBOL        temp
  -------         ENDDO         
  C:C62FH         LINE#         1885
  C:C62FH         LINE#         1886
  C:C62FH         LINE#         1888
  C:C634H         LINE#         1889
  C:C637H         LINE#         1890
  C:C63AH         LINE#         1891
  C:C63DH         LINE#         1892
  -------         ENDPROC       MEMREAD_TOP_DOWN_LEFT_RIGHT
  -------         PROC          MEMREAD_DOWN_TOP_LEFT_RIGHT
  -------         DO            
  D:0007H         SYMBOL        temp
  -------         ENDDO         
  C:C640H         LINE#         1894
  C:C640H         LINE#         1895
  C:C640H         LINE#         1897
  C:C645H         LINE#         1898
  C:C648H         LINE#         1899
BL51 BANKED LINKER/LOCATER V6.22                                                      07/02/2019  17:10:49  PAGE 60


  C:C64BH         LINE#         1900
  C:C64EH         LINE#         1901
  -------         ENDPROC       MEMREAD_DOWN_TOP_LEFT_RIGHT
  -------         PROC          MEMWRITE_LEFT_RIGHT_TOP_DOWN
  -------         DO            
  D:0007H         SYMBOL        temp
  -------         ENDDO         
  C:C651H         LINE#         1903
  C:C651H         LINE#         1904
  C:C651H         LINE#         1906
  C:C656H         LINE#         1907
  C:C659H         LINE#         1908
  C:C65CH         LINE#         1909
  C:C65FH         LINE#         1910
  -------         ENDPROC       MEMWRITE_LEFT_RIGHT_TOP_DOWN
  -------         PROC          MEMWRITE_RIGHT_LEFT_TOP_DOWN
  -------         DO            
  D:0007H         SYMBOL        temp
  -------         ENDDO         
  C:C662H         LINE#         1912
  C:C662H         LINE#         1913
  C:C662H         LINE#         1915
  C:C667H         LINE#         1916
  C:C66AH         LINE#         1917
  C:C66DH         LINE#         1918
  C:C670H         LINE#         1919
  -------         ENDPROC       MEMWRITE_RIGHT_LEFT_TOP_DOWN
  -------         PROC          MEMWRITE_TOP_DOWN_LEFT_RIGHT
  -------         DO            
  D:0007H         SYMBOL        temp
  -------         ENDDO         
  C:C673H         LINE#         1921
  C:C673H         LINE#         1922
  C:C673H         LINE#         1924
  C:C678H         LINE#         1925
  C:C67BH         LINE#         1926
  C:C67EH         LINE#         1927
  C:C681H         LINE#         1928
  -------         ENDPROC       MEMWRITE_TOP_DOWN_LEFT_RIGHT
  -------         PROC          MEMWRITE_DOWN_TOP_LEFT_RIGHT
  -------         DO            
  D:0007H         SYMBOL        temp
  -------         ENDDO         
  C:C684H         LINE#         1930
  C:C684H         LINE#         1931
  C:C684H         LINE#         1933
  C:C689H         LINE#         1934
  C:C68CH         LINE#         1935
  C:C68FH         LINE#         1936
  C:C692H         LINE#         1937
  -------         ENDPROC       MEMWRITE_DOWN_TOP_LEFT_RIGHT
  -------         PROC          INTERRUPT_ACTIVE_LOW
  -------         DO            
  D:0007H         SYMBOL        temp
  -------         ENDDO         
  C:CAC2H         LINE#         1940
  C:CAC2H         LINE#         1941
BL51 BANKED LINKER/LOCATER V6.22                                                      07/02/2019  17:10:49  PAGE 61


  C:CAC2H         LINE#         1946
  C:CAC7H         LINE#         1947
  C:CACAH         LINE#         1948
  C:CACEH         LINE#         1949
  -------         ENDPROC       INTERRUPT_ACTIVE_LOW
  -------         PROC          INTERRUPT_ACTIVE_HIGH
  -------         DO            
  D:0007H         SYMBOL        temp
  -------         ENDDO         
  C:CAD1H         LINE#         1951
  C:CAD1H         LINE#         1952
  C:CAD1H         LINE#         1957
  C:CAD6H         LINE#         1958
  C:CAD9H         LINE#         1959
  C:CADDH         LINE#         1960
  -------         ENDPROC       INTERRUPT_ACTIVE_HIGH
  -------         PROC          EXTINTERRUPT_DEBOUNCE
  -------         DO            
  D:0007H         SYMBOL        temp
  -------         ENDDO         
  C:CAE0H         LINE#         1962
  C:CAE0H         LINE#         1963
  C:CAE0H         LINE#         1968
  C:CAE5H         LINE#         1969
  C:CAE8H         LINE#         1970
  C:CAECH         LINE#         1971
  -------         ENDPROC       EXTINTERRUPT_DEBOUNCE
  -------         PROC          EXTINTERRUPT_NODEBOUNCE
  -------         DO            
  D:0007H         SYMBOL        temp
  -------         ENDDO         
  C:CAEFH         LINE#         1973
  C:CAEFH         LINE#         1974
  C:CAEFH         LINE#         1979
  C:CAF4H         LINE#         1980
  C:CAF7H         LINE#         1981
  C:CAFBH         LINE#         1982
  -------         ENDPROC       EXTINTERRUPT_NODEBOUNCE
  -------         PROC          EXTINTERRUPT_INPUT_LOW_LEVEL_TRIGGER
  -------         DO            
  D:0007H         SYMBOL        temp
  -------         ENDDO         
  C:C695H         LINE#         1984
  C:C695H         LINE#         1985
  C:C695H         LINE#         1987
  C:C69AH         LINE#         1988
  C:C69DH         LINE#         1989
  C:C6A0H         LINE#         1990
  C:C6A3H         LINE#         1991
  -------         ENDPROC       EXTINTERRUPT_INPUT_LOW_LEVEL_TRIGGER
  -------         PROC          EXTINTERRUPT_INPUT_HIGH_LEVEL_TRIGGER
  -------         DO            
  D:0007H         SYMBOL        temp
  -------         ENDDO         
  C:C6A6H         LINE#         1993
  C:C6A6H         LINE#         1994
  C:C6A6H         LINE#         1996
BL51 BANKED LINKER/LOCATER V6.22                                                      07/02/2019  17:10:49  PAGE 62


  C:C6ABH         LINE#         1997
  C:C6AEH         LINE#         1998
  C:C6B1H         LINE#         1999
  C:C6B4H         LINE#         2000
  -------         ENDPROC       EXTINTERRUPT_INPUT_HIGH_LEVEL_TRIGGER
  -------         PROC          EXTINTERRUPT_INPUT_FALLING_EDGE_TRIGGER
  -------         DO            
  D:0007H         SYMBOL        temp
  -------         ENDDO         
  C:C6B7H         LINE#         2002
  C:C6B7H         LINE#         2003
  C:C6B7H         LINE#         2005
  C:C6BCH         LINE#         2006
  C:C6BFH         LINE#         2007
  C:C6C2H         LINE#         2008
  C:C6C5H         LINE#         2009
  -------         ENDPROC       EXTINTERRUPT_INPUT_FALLING_EDGE_TRIGGER
  -------         PROC          EXTINTERRUPT_INPUT_RISING_EDGE_TRIGGER
  -------         DO            
  D:0007H         SYMBOL        temp
  -------         ENDDO         
  C:C6C8H         LINE#         2011
  C:C6C8H         LINE#         2012
  C:C6C8H         LINE#         2014
  C:C6CDH         LINE#         2015
  C:C6D0H         LINE#         2016
  C:C6D3H         LINE#         2017
  C:C6D6H         LINE#         2018
  -------         ENDPROC       EXTINTERRUPT_INPUT_RISING_EDGE_TRIGGER
  -------         PROC          GRAPHIC_MODE
  -------         DO            
  D:0007H         SYMBOL        temp
  -------         ENDDO         
  C:CAFEH         LINE#         2021
  C:CAFEH         LINE#         2022
  C:CAFEH         LINE#         2024
  C:CB03H         LINE#         2025
  C:CB06H         LINE#         2026
  C:CB0AH         LINE#         2027
  -------         ENDPROC       GRAPHIC_MODE
  -------         PROC          TEXT_MODE
  -------         DO            
  D:0007H         SYMBOL        temp
  -------         ENDDO         
  C:CB0DH         LINE#         2029
  C:CB0DH         LINE#         2030
  C:CB0DH         LINE#         2032
  C:CB12H         LINE#         2033
  C:CB15H         LINE#         2034
  C:CB19H         LINE#         2035
  -------         ENDPROC       TEXT_MODE
  -------         PROC          MEMORY_SELECT_SDRAM
  -------         DO            
  D:0007H         SYMBOL        temp
  -------         ENDDO         
  C:C6D9H         LINE#         2037
  C:C6D9H         LINE#         2038
BL51 BANKED LINKER/LOCATER V6.22                                                      07/02/2019  17:10:49  PAGE 63


  C:C6D9H         LINE#         2040
  C:C6DEH         LINE#         2041
  C:C6E1H         LINE#         2042
  C:C6E4H         LINE#         2043
  C:C6E7H         LINE#         2044
  -------         ENDPROC       MEMORY_SELECT_SDRAM
  -------         PROC          MEMORY_SELECT_GRAPHIC_CURSOR_RAM
  -------         DO            
  D:0007H         SYMBOL        temp
  -------         ENDDO         
  C:C6EAH         LINE#         2046
  C:C6EAH         LINE#         2047
  C:C6EAH         LINE#         2049
  C:C6EFH         LINE#         2050
  C:C6F2H         LINE#         2051
  C:C6F5H         LINE#         2052
  C:C6F8H         LINE#         2053
  -------         ENDPROC       MEMORY_SELECT_GRAPHIC_CURSOR_RAM
  -------         PROC          MEMORY_SELECT_COLOR_PALETTE_RAM
  -------         DO            
  D:0007H         SYMBOL        temp
  -------         ENDDO         
  C:C6FBH         LINE#         2055
  C:C6FBH         LINE#         2056
  C:C6FBH         LINE#         2058
  C:C700H         LINE#         2059
  C:C703H         LINE#         2060
  C:C706H         LINE#         2061
  C:C709H         LINE#         2062
  -------         ENDPROC       MEMORY_SELECT_COLOR_PALETTE_RAM
  -------         PROC          ENABLE_RESUME_INTERRUPT
  -------         DO            
  D:0007H         SYMBOL        temp
  -------         ENDDO         
  C:CB1CH         LINE#         2073
  C:CB1CH         LINE#         2074
  C:CB1CH         LINE#         2081
  C:CB21H         LINE#         2082
  C:CB24H         LINE#         2083
  C:CB28H         LINE#         2084
  -------         ENDPROC       ENABLE_RESUME_INTERRUPT
  -------         PROC          DISABLE_RESUME_INTERRUPT
  -------         DO            
  D:0007H         SYMBOL        temp
  -------         ENDDO         
  C:CB2BH         LINE#         2086
  C:CB2BH         LINE#         2087
  C:CB2BH         LINE#         2094
  C:CB30H         LINE#         2095
  C:CB33H         LINE#         2096
  C:CB37H         LINE#         2097
  -------         ENDPROC       DISABLE_RESUME_INTERRUPT
  -------         PROC          ENABLE_EXTINTERRUPT_INPUT
  -------         DO            
  D:0007H         SYMBOL        temp
  -------         ENDDO         
  C:CB3AH         LINE#         2099
BL51 BANKED LINKER/LOCATER V6.22                                                      07/02/2019  17:10:49  PAGE 64


  C:CB3AH         LINE#         2100
  C:CB3AH         LINE#         2107
  C:CB3FH         LINE#         2108
  C:CB42H         LINE#         2109
  C:CB46H         LINE#         2110
  -------         ENDPROC       ENABLE_EXTINTERRUPT_INPUT
  -------         PROC          DISABLE_EXTINTERRUPT_INPUT
  -------         DO            
  D:0007H         SYMBOL        temp
  -------         ENDDO         
  C:CB49H         LINE#         2112
  C:CB49H         LINE#         2113
  C:CB49H         LINE#         2120
  C:CB4EH         LINE#         2121
  C:CB51H         LINE#         2122
  C:CB55H         LINE#         2123
  -------         ENDPROC       DISABLE_EXTINTERRUPT_INPUT
  -------         PROC          ENABLE_I2CM_INTERRUPT
  -------         DO            
  D:0007H         SYMBOL        temp
  -------         ENDDO         
  C:CB58H         LINE#         2125
  C:CB58H         LINE#         2126
  C:CB58H         LINE#         2133
  C:CB5DH         LINE#         2134
  C:CB60H         LINE#         2135
  C:CB64H         LINE#         2136
  -------         ENDPROC       ENABLE_I2CM_INTERRUPT
  -------         PROC          DISABLE_I2CM_INTERRUPT
  -------         DO            
  D:0007H         SYMBOL        temp
  -------         ENDDO         
  C:CB67H         LINE#         2138
  C:CB67H         LINE#         2139
  C:CB67H         LINE#         2146
  C:CB6CH         LINE#         2147
  C:CB6FH         LINE#         2148
  C:CB73H         LINE#         2149
  -------         ENDPROC       DISABLE_I2CM_INTERRUPT
  -------         PROC          ENABLE_VSYNC_INTERRUPT
  -------         DO            
  D:0007H         SYMBOL        temp
  -------         ENDDO         
  C:CB76H         LINE#         2151
  C:CB76H         LINE#         2152
  C:CB76H         LINE#         2159
  C:CB7BH         LINE#         2160
  C:CB7EH         LINE#         2161
  C:CB82H         LINE#         2162
  -------         ENDPROC       ENABLE_VSYNC_INTERRUPT
  -------         PROC          DISABLE_VSYNC_INTERRUPT
  -------         DO            
  D:0007H         SYMBOL        temp
  -------         ENDDO         
  C:CB85H         LINE#         2164
  C:CB85H         LINE#         2165
  C:CB85H         LINE#         2172
BL51 BANKED LINKER/LOCATER V6.22                                                      07/02/2019  17:10:49  PAGE 65


  C:CB8AH         LINE#         2173
  C:CB8DH         LINE#         2174
  C:CB91H         LINE#         2175
  -------         ENDPROC       DISABLE_VSYNC_INTERRUPT
  -------         PROC          ENABLE_DMA_DRAW_BTE_INTERRUPT
  -------         DO            
  D:0007H         SYMBOL        temp
  -------         ENDDO         
  C:CB94H         LINE#         2178
  C:CB94H         LINE#         2179
  C:CB94H         LINE#         2187
  C:CB99H         LINE#         2188
  C:CB9CH         LINE#         2189
  C:CBA0H         LINE#         2190
  -------         ENDPROC       ENABLE_DMA_DRAW_BTE_INTERRUPT
  -------         PROC          DISABLE_DMA_DRAW_BTE_INTERRUPT
  -------         DO            
  D:0007H         SYMBOL        temp
  -------         ENDDO         
  C:CBA3H         LINE#         2192
  C:CBA3H         LINE#         2193
  C:CBA3H         LINE#         2201
  C:CBA8H         LINE#         2202
  C:CBABH         LINE#         2203
  C:CBAFH         LINE#         2204
  -------         ENDPROC       DISABLE_DMA_DRAW_BTE_INTERRUPT
  -------         PROC          ENABLE_PWM1_INTERRUPT
  -------         DO            
  D:0007H         SYMBOL        temp
  -------         ENDDO         
  C:CBB2H         LINE#         2206
  C:CBB2H         LINE#         2207
  C:CBB2H         LINE#         2214
  C:CBB7H         LINE#         2215
  C:CBBAH         LINE#         2216
  C:CBBEH         LINE#         2217
  -------         ENDPROC       ENABLE_PWM1_INTERRUPT
  -------         PROC          DISABLE_PWM1_INTERRUPT
  -------         DO            
  D:0007H         SYMBOL        temp
  -------         ENDDO         
  C:CBC1H         LINE#         2219
  C:CBC1H         LINE#         2220
  C:CBC1H         LINE#         2227
  C:CBC6H         LINE#         2228
  C:CBC9H         LINE#         2229
  C:CBCDH         LINE#         2230
  -------         ENDPROC       DISABLE_PWM1_INTERRUPT
  -------         PROC          ENABLE_PWM0_INTERRUPT
  -------         DO            
  D:0007H         SYMBOL        temp
  -------         ENDDO         
  C:CBD0H         LINE#         2232
  C:CBD0H         LINE#         2233
  C:CBD0H         LINE#         2240
  C:CBD5H         LINE#         2241
  C:CBD8H         LINE#         2242
BL51 BANKED LINKER/LOCATER V6.22                                                      07/02/2019  17:10:49  PAGE 66


  C:CBDCH         LINE#         2243
  -------         ENDPROC       ENABLE_PWM0_INTERRUPT
  -------         PROC          DISABLE_PWM0_INTERRUPT
  -------         DO            
  D:0007H         SYMBOL        temp
  -------         ENDDO         
  C:CBDFH         LINE#         2245
  C:CBDFH         LINE#         2246
  C:CBDFH         LINE#         2253
  C:CBE4H         LINE#         2254
  C:CBE7H         LINE#         2255
  C:CBEBH         LINE#         2256
  -------         ENDPROC       DISABLE_PWM0_INTERRUPT
  -------         PROC          READ_INTERRUPT_STATUS
  -------         DO            
  D:0007H         SYMBOL        temp
  -------         ENDDO         
  C:D51AH         LINE#         2260
  C:D51AH         LINE#         2261
  C:D51AH         LINE#         2289
  C:D51FH         LINE#         2290
  C:D522H         LINE#         2291
  C:D522H         LINE#         2292
  -------         ENDPROC       READ_INTERRUPT_STATUS
  -------         PROC          CLEAR_RESUME_INTERRUPT_FLAG
  -------         DO            
  D:0007H         SYMBOL        temp
  -------         ENDDO         
  C:CBEEH         LINE#         2293
  C:CBEEH         LINE#         2294
  C:CBEEH         LINE#         2302
  C:CBF3H         LINE#         2303
  C:CBF6H         LINE#         2304
  C:CBFAH         LINE#         2305
  -------         ENDPROC       CLEAR_RESUME_INTERRUPT_FLAG
  -------         PROC          CLEAR_EXTINTERRUPT_INPUT_FLAG
  -------         DO            
  D:0007H         SYMBOL        temp
  -------         ENDDO         
  C:CBFDH         LINE#         2307
  C:CBFDH         LINE#         2308
  C:CBFDH         LINE#         2316
  C:CC02H         LINE#         2317
  C:CC05H         LINE#         2318
  C:CC09H         LINE#         2319
  -------         ENDPROC       CLEAR_EXTINTERRUPT_INPUT_FLAG
  -------         PROC          CLEAR_I2CM_INTERRUPT_FLAG
  -------         DO            
  D:0007H         SYMBOL        temp
  -------         ENDDO         
  C:CC0CH         LINE#         2321
  C:CC0CH         LINE#         2322
  C:CC0CH         LINE#         2330
  C:CC11H         LINE#         2331
  C:CC14H         LINE#         2332
  C:CC18H         LINE#         2333
  -------         ENDPROC       CLEAR_I2CM_INTERRUPT_FLAG
BL51 BANKED LINKER/LOCATER V6.22                                                      07/02/2019  17:10:49  PAGE 67


  -------         PROC          CLEAR_VSYNC_INTERRUPT_FLAG
  -------         DO            
  D:0007H         SYMBOL        temp
  -------         ENDDO         
  C:CC1BH         LINE#         2335
  C:CC1BH         LINE#         2336
  C:CC1BH         LINE#         2344
  C:CC20H         LINE#         2345
  C:CC23H         LINE#         2346
  C:CC27H         LINE#         2347
  -------         ENDPROC       CLEAR_VSYNC_INTERRUPT_FLAG
  -------         PROC          CLEAR_DMA_DRAW_BTE_INTERRUPT_FLAG
  -------         DO            
  D:0007H         SYMBOL        temp
  -------         ENDDO         
  C:CC2AH         LINE#         2350
  C:CC2AH         LINE#         2351
  C:CC2AH         LINE#         2360
  C:CC2FH         LINE#         2361
  C:CC32H         LINE#         2362
  C:CC36H         LINE#         2363
  -------         ENDPROC       CLEAR_DMA_DRAW_BTE_INTERRUPT_FLAG
  -------         PROC          CLEAR_PWM1_INTERRUPT_FLAG
  -------         DO            
  D:0007H         SYMBOL        temp
  -------         ENDDO         
  C:CC39H         LINE#         2365
  C:CC39H         LINE#         2366
  C:CC39H         LINE#         2374
  C:CC3EH         LINE#         2375
  C:CC41H         LINE#         2376
  C:CC45H         LINE#         2377
  -------         ENDPROC       CLEAR_PWM1_INTERRUPT_FLAG
  -------         PROC          CLEAR_PWM0_INTERRUPT_FLAG
  -------         DO            
  D:0007H         SYMBOL        temp
  -------         ENDDO         
  C:CC48H         LINE#         2379
  C:CC48H         LINE#         2380
  C:CC48H         LINE#         2388
  C:CC4DH         LINE#         2389
  C:CC50H         LINE#         2390
  C:CC54H         LINE#         2391
  -------         ENDPROC       CLEAR_PWM0_INTERRUPT_FLAG
  -------         PROC          MASK_RESUME_INTERRUPT_FLAG
  -------         DO            
  D:0007H         SYMBOL        temp
  -------         ENDDO         
  C:CC57H         LINE#         2394
  C:CC57H         LINE#         2395
  C:CC57H         LINE#         2402
  C:CC5CH         LINE#         2403
  C:CC5FH         LINE#         2404
  C:CC63H         LINE#         2405
  -------         ENDPROC       MASK_RESUME_INTERRUPT_FLAG
  -------         PROC          MASK_EXTINTERRUPT_INPUT_FLAG
  -------         DO            
BL51 BANKED LINKER/LOCATER V6.22                                                      07/02/2019  17:10:49  PAGE 68


  D:0007H         SYMBOL        temp
  -------         ENDDO         
  C:CC66H         LINE#         2407
  C:CC66H         LINE#         2408
  C:CC66H         LINE#         2415
  C:CC6BH         LINE#         2416
  C:CC6EH         LINE#         2417
  C:CC72H         LINE#         2418
  -------         ENDPROC       MASK_EXTINTERRUPT_INPUT_FLAG
  -------         PROC          MASK_I2CM_INTERRUPT_FLAG
  -------         DO            
  D:0007H         SYMBOL        temp
  -------         ENDDO         
  C:CC75H         LINE#         2420
  C:CC75H         LINE#         2421
  C:CC75H         LINE#         2428
  C:CC7AH         LINE#         2429
  C:CC7DH         LINE#         2430
  C:CC81H         LINE#         2431
  -------         ENDPROC       MASK_I2CM_INTERRUPT_FLAG
  -------         PROC          MASK_VSYNC_INTERRUPT_FLAG
  -------         DO            
  D:0007H         SYMBOL        temp
  -------         ENDDO         
  C:CC84H         LINE#         2433
  C:CC84H         LINE#         2434
  C:CC84H         LINE#         2441
  C:CC89H         LINE#         2442
  C:CC8CH         LINE#         2443
  C:CC90H         LINE#         2444
  -------         ENDPROC       MASK_VSYNC_INTERRUPT_FLAG
  -------         PROC          MASK_DMA_DRAW_BTE_INTERRUPT_FLAG
  -------         DO            
  D:0007H         SYMBOL        temp
  -------         ENDDO         
  C:CC93H         LINE#         2447
  C:CC93H         LINE#         2448
  C:CC93H         LINE#         2456
  C:CC98H         LINE#         2457
  C:CC9BH         LINE#         2458
  C:CC9FH         LINE#         2459
  -------         ENDPROC       MASK_DMA_DRAW_BTE_INTERRUPT_FLAG
  -------         PROC          MASK_PWM1_INTERRUPT_FLAG
  -------         DO            
  D:0007H         SYMBOL        temp
  -------         ENDDO         
  C:CCA2H         LINE#         2461
  C:CCA2H         LINE#         2462
  C:CCA2H         LINE#         2469
  C:CCA7H         LINE#         2470
  C:CCAAH         LINE#         2471
  C:CCAEH         LINE#         2472
  -------         ENDPROC       MASK_PWM1_INTERRUPT_FLAG
  -------         PROC          MASK_PWM0_INTERRUPT_FLAG
  -------         DO            
  D:0007H         SYMBOL        temp
  -------         ENDDO         
BL51 BANKED LINKER/LOCATER V6.22                                                      07/02/2019  17:10:49  PAGE 69


  C:CCB1H         LINE#         2474
  C:CCB1H         LINE#         2475
  C:CCB1H         LINE#         2482
  C:CCB6H         LINE#         2483
  C:CCB9H         LINE#         2484
  C:CCBDH         LINE#         2485
  -------         ENDPROC       MASK_PWM0_INTERRUPT_FLAG
  -------         PROC          ENABLE_RESUME_INTERRUPT_FLAG
  -------         DO            
  D:0007H         SYMBOL        temp
  -------         ENDDO         
  C:CCC0H         LINE#         2488
  C:CCC0H         LINE#         2489
  C:CCC0H         LINE#         2496
  C:CCC5H         LINE#         2497
  C:CCC8H         LINE#         2498
  C:CCCCH         LINE#         2499
  -------         ENDPROC       ENABLE_RESUME_INTERRUPT_FLAG
  -------         PROC          ENABLE_EXTINTERRUPT_INPUR_FLAG
  -------         DO            
  D:0007H         SYMBOL        temp
  -------         ENDDO         
  C:CCCFH         LINE#         2501
  C:CCCFH         LINE#         2502
  C:CCCFH         LINE#         2509
  C:CCD4H         LINE#         2510
  C:CCD7H         LINE#         2511
  C:CCDBH         LINE#         2512
  -------         ENDPROC       ENABLE_EXTINTERRUPT_INPUR_FLAG
  -------         PROC          ENABLE_I2CM_INTERRUPT_FLAG
  -------         DO            
  D:0007H         SYMBOL        temp
  -------         ENDDO         
  C:CCDEH         LINE#         2514
  C:CCDEH         LINE#         2515
  C:CCDEH         LINE#         2522
  C:CCE3H         LINE#         2523
  C:CCE6H         LINE#         2524
  C:CCEAH         LINE#         2525
  -------         ENDPROC       ENABLE_I2CM_INTERRUPT_FLAG
  -------         PROC          ENABLE_VSYNC_INTERRUPT_FLAG
  -------         DO            
  D:0007H         SYMBOL        temp
  -------         ENDDO         
  C:CCEDH         LINE#         2527
  C:CCEDH         LINE#         2528
  C:CCEDH         LINE#         2535
  C:CCF2H         LINE#         2536
  C:CCF5H         LINE#         2537
  C:CCF9H         LINE#         2538
  -------         ENDPROC       ENABLE_VSYNC_INTERRUPT_FLAG
  -------         PROC          ENABLE_DMA_DRAW_BTE_INTERRUPT_FLAG
  -------         DO            
  D:0007H         SYMBOL        temp
  -------         ENDDO         
  C:CCFCH         LINE#         2541
  C:CCFCH         LINE#         2542
BL51 BANKED LINKER/LOCATER V6.22                                                      07/02/2019  17:10:49  PAGE 70


  C:CCFCH         LINE#         2550
  C:CD01H         LINE#         2551
  C:CD04H         LINE#         2552
  C:CD08H         LINE#         2553
  -------         ENDPROC       ENABLE_DMA_DRAW_BTE_INTERRUPT_FLAG
  -------         PROC          ENABLE_PWM1_INTERRUPT_FLAG
  -------         DO            
  D:0007H         SYMBOL        temp
  -------         ENDDO         
  C:CD0BH         LINE#         2555
  C:CD0BH         LINE#         2556
  C:CD0BH         LINE#         2563
  C:CD10H         LINE#         2564
  C:CD13H         LINE#         2565
  C:CD17H         LINE#         2566
  -------         ENDPROC       ENABLE_PWM1_INTERRUPT_FLAG
  -------         PROC          ENABLE_PWM0_INTERRUPT_FLAG
  -------         DO            
  D:0007H         SYMBOL        temp
  -------         ENDDO         
  C:CD1AH         LINE#         2568
  C:CD1AH         LINE#         2569
  C:CD1AH         LINE#         2576
  C:CD1FH         LINE#         2577
  C:CD22H         LINE#         2578
  C:CD26H         LINE#         2579
  -------         ENDPROC       ENABLE_PWM0_INTERRUPT_FLAG
  -------         PROC          ENABLE_XDB15_8_PULLUP
  -------         DO            
  D:0007H         SYMBOL        temp
  -------         ENDDO         
  C:CD29H         LINE#         2583
  C:CD29H         LINE#         2584
  C:CD29H         LINE#         2591
  C:CD2EH         LINE#         2592
  C:CD31H         LINE#         2593
  C:CD35H         LINE#         2594
  -------         ENDPROC       ENABLE_XDB15_8_PULLUP
  -------         PROC          DISABLE_XDB15_8_PULLUP
  -------         DO            
  D:0007H         SYMBOL        temp
  -------         ENDDO         
  C:CD38H         LINE#         2597
  C:CD38H         LINE#         2598
  C:CD38H         LINE#         2605
  C:CD3DH         LINE#         2606
  C:CD40H         LINE#         2607
  C:CD44H         LINE#         2608
  -------         ENDPROC       DISABLE_XDB15_8_PULLUP
  -------         PROC          DISABLE_XDB7_0_PULLUP
  -------         DO            
  D:0007H         SYMBOL        temp
  -------         ENDDO         
  C:CD47H         LINE#         2610
  C:CD47H         LINE#         2611
  C:CD47H         LINE#         2618
  C:CD4CH         LINE#         2619
BL51 BANKED LINKER/LOCATER V6.22                                                      07/02/2019  17:10:49  PAGE 71


  C:CD4FH         LINE#         2620
  C:CD53H         LINE#         2621
  -------         ENDPROC       DISABLE_XDB7_0_PULLUP
  -------         PROC          ENABLE_PIP1
  -------         DO            
  D:0007H         SYMBOL        temp
  -------         ENDDO         
  C:CD56H         LINE#         2626
  C:CD56H         LINE#         2627
  C:CD56H         LINE#         2635
  C:CD5BH         LINE#         2636
  C:CD5EH         LINE#         2637
  C:CD62H         LINE#         2638
  -------         ENDPROC       ENABLE_PIP1
  -------         PROC          DISABLE_PIP1
  -------         DO            
  D:0007H         SYMBOL        temp
  -------         ENDDO         
  C:CD65H         LINE#         2640
  C:CD65H         LINE#         2641
  C:CD65H         LINE#         2649
  C:CD6AH         LINE#         2650
  C:CD6DH         LINE#         2651
  C:CD71H         LINE#         2652
  -------         ENDPROC       DISABLE_PIP1
  -------         PROC          ENABLE_PIP2
  -------         DO            
  D:0007H         SYMBOL        temp
  -------         ENDDO         
  C:CD74H         LINE#         2654
  C:CD74H         LINE#         2655
  C:CD74H         LINE#         2663
  C:CD79H         LINE#         2664
  C:CD7CH         LINE#         2665
  C:CD80H         LINE#         2666
  -------         ENDPROC       ENABLE_PIP2
  -------         PROC          DISABLE_PIP2
  -------         DO            
  D:0007H         SYMBOL        temp
  -------         ENDDO         
  C:CD83H         LINE#         2668
  C:CD83H         LINE#         2669
  C:CD83H         LINE#         2677
  C:CD88H         LINE#         2678
  C:CD8BH         LINE#         2679
  C:CD8FH         LINE#         2680
  -------         ENDPROC       DISABLE_PIP2
  -------         PROC          SELECT_PIP1_PARAMETER
  -------         DO            
  D:0007H         SYMBOL        temp
  -------         ENDDO         
  C:CD92H         LINE#         2682
  C:CD92H         LINE#         2683
  C:CD92H         LINE#         2689
  C:CD97H         LINE#         2690
  C:CD9AH         LINE#         2691
  C:CD9EH         LINE#         2692
BL51 BANKED LINKER/LOCATER V6.22                                                      07/02/2019  17:10:49  PAGE 72


  -------         ENDPROC       SELECT_PIP1_PARAMETER
  -------         PROC          SELECT_PIP2_PARAMETER
  -------         DO            
  D:0007H         SYMBOL        temp
  -------         ENDDO         
  C:CDA1H         LINE#         2694
  C:CDA1H         LINE#         2695
  C:CDA1H         LINE#         2701
  C:CDA6H         LINE#         2702
  C:CDA9H         LINE#         2703
  C:CDADH         LINE#         2704
  -------         ENDPROC       SELECT_PIP2_PARAMETER
  -------         PROC          SELECT_MAIN_WINDOW_8BPP
  -------         DO            
  D:0007H         SYMBOL        temp
  -------         ENDDO         
  C:C70CH         LINE#         2706
  C:C70CH         LINE#         2707
  C:C70CH         LINE#         2715
  C:C711H         LINE#         2716
  C:C714H         LINE#         2717
  C:C717H         LINE#         2718
  C:C71AH         LINE#         2719
  -------         ENDPROC       SELECT_MAIN_WINDOW_8BPP
  -------         PROC          SELECT_MAIN_WINDOW_16BPP
  -------         DO            
  D:0007H         SYMBOL        temp
  -------         ENDDO         
  C:C71DH         LINE#         2721
  C:C71DH         LINE#         2722
  C:C71DH         LINE#         2730
  C:C722H         LINE#         2731
  C:C725H         LINE#         2732
  C:C728H         LINE#         2733
  C:C72BH         LINE#         2734
  -------         ENDPROC       SELECT_MAIN_WINDOW_16BPP
  -------         PROC          SELECT_MAIN_WINDOW_24BPP
  -------         DO            
  D:0007H         SYMBOL        temp
  -------         ENDDO         
  C:CDB0H         LINE#         2736
  C:CDB0H         LINE#         2737
  C:CDB0H         LINE#         2745
  C:CDB5H         LINE#         2746
  C:CDB8H         LINE#         2747
  C:CDBCH         LINE#         2749
  -------         ENDPROC       SELECT_MAIN_WINDOW_24BPP
  -------         PROC          SELECT_PIP2_WINDOW_8BPP
  -------         DO            
  D:0007H         SYMBOL        temp
  -------         ENDDO         
  C:C72EH         LINE#         2752
  C:C72EH         LINE#         2753
  C:C72EH         LINE#         2761
  C:C733H         LINE#         2762
  C:C736H         LINE#         2763
  C:C739H         LINE#         2764
BL51 BANKED LINKER/LOCATER V6.22                                                      07/02/2019  17:10:49  PAGE 73


  C:C73CH         LINE#         2765
  -------         ENDPROC       SELECT_PIP2_WINDOW_8BPP
  -------         PROC          SELECT_PIP2_WINDOW_16BPP
  -------         DO            
  D:0007H         SYMBOL        temp
  -------         ENDDO         
  C:C73FH         LINE#         2767
  C:C73FH         LINE#         2768
  C:C73FH         LINE#         2776
  C:C744H         LINE#         2777
  C:C747H         LINE#         2778
  C:C74AH         LINE#         2779
  C:C74DH         LINE#         2780
  -------         ENDPROC       SELECT_PIP2_WINDOW_16BPP
  -------         PROC          SELECT_PIP2_WINDOW_24BPP
  -------         DO            
  D:0007H         SYMBOL        temp
  -------         ENDDO         
  C:C750H         LINE#         2782
  C:C750H         LINE#         2783
  C:C750H         LINE#         2791
  C:C755H         LINE#         2792
  C:C758H         LINE#         2793
  C:C75BH         LINE#         2794
  C:C75EH         LINE#         2795
  -------         ENDPROC       SELECT_PIP2_WINDOW_24BPP
  -------         PROC          SELECT_PIP1_WINDOW_8BPP
  -------         DO            
  D:0007H         SYMBOL        temp
  -------         ENDDO         
  C:C761H         LINE#         2797
  C:C761H         LINE#         2798
  C:C761H         LINE#         2806
  C:C766H         LINE#         2807
  C:C769H         LINE#         2808
  C:C76CH         LINE#         2809
  C:C76FH         LINE#         2810
  -------         ENDPROC       SELECT_PIP1_WINDOW_8BPP
  -------         PROC          SELECT_PIP1_WINDOW_16BPP
  -------         DO            
  D:0007H         SYMBOL        temp
  -------         ENDDO         
  C:C772H         LINE#         2812
  C:C772H         LINE#         2813
  C:C772H         LINE#         2821
  C:C777H         LINE#         2822
  C:C77AH         LINE#         2823
  C:C77DH         LINE#         2824
  C:C780H         LINE#         2825
  -------         ENDPROC       SELECT_PIP1_WINDOW_16BPP
  -------         PROC          SELECT_PIP1_WINDOW_24BPP
  -------         DO            
  D:0007H         SYMBOL        temp
  -------         ENDDO         
  C:C783H         LINE#         2827
  C:C783H         LINE#         2828
  C:C783H         LINE#         2836
BL51 BANKED LINKER/LOCATER V6.22                                                      07/02/2019  17:10:49  PAGE 74


  C:C788H         LINE#         2837
  C:C78BH         LINE#         2838
  C:C78EH         LINE#         2839
  C:C791H         LINE#         2840
  -------         ENDPROC       SELECT_PIP1_WINDOW_24BPP
  -------         PROC          PCLK_RISING
  -------         DO            
  D:0007H         SYMBOL        temp
  -------         ENDDO         
  C:D484H         LINE#         2844
  C:D484H         LINE#         2845
  C:D484H         LINE#         2852
  C:D484H         LINE#         2853
  C:D487H         LINE#         2854
  C:D48BH         LINE#         2855
  -------         ENDPROC       PCLK_RISING
  -------         PROC          PCLK_FALLING
  -------         DO            
  D:0007H         SYMBOL        temp
  -------         ENDDO         
  C:D48EH         LINE#         2857
  C:D48EH         LINE#         2858
  C:D48EH         LINE#         2865
  C:D48EH         LINE#         2866
  C:D491H         LINE#         2867
  C:D495H         LINE#         2868
  -------         ENDPROC       PCLK_FALLING
  -------         PROC          DISPLAY_ON
  -------         DO            
  D:0007H         SYMBOL        temp
  -------         ENDDO         
  C:D498H         LINE#         2870
  C:D498H         LINE#         2871
  C:D498H         LINE#         2879
  C:D498H         LINE#         2880
  C:D49BH         LINE#         2881
  C:D49FH         LINE#         2882
  -------         ENDPROC       DISPLAY_ON
  -------         PROC          DISPLAY_OFF
  -------         DO            
  D:0007H         SYMBOL        temp
  -------         ENDDO         
  C:D4A2H         LINE#         2885
  C:D4A2H         LINE#         2886
  C:D4A2H         LINE#         2894
  C:D4A2H         LINE#         2895
  C:D4A5H         LINE#         2896
  C:D4A9H         LINE#         2897
  -------         ENDPROC       DISPLAY_OFF
  -------         PROC          COLOR_BAR_ON
  -------         DO            
  D:0007H         SYMBOL        temp
  -------         ENDDO         
  C:D4ACH         LINE#         2899
  C:D4ACH         LINE#         2900
  C:D4ACH         LINE#         2908
  C:D4ACH         LINE#         2909
BL51 BANKED LINKER/LOCATER V6.22                                                      07/02/2019  17:10:49  PAGE 75


  C:D4AFH         LINE#         2910
  C:D4B3H         LINE#         2911
  -------         ENDPROC       COLOR_BAR_ON
  -------         PROC          COLOR_BAR_OFF
  -------         DO            
  D:0007H         SYMBOL        temp
  -------         ENDDO         
  C:D4B6H         LINE#         2913
  C:D4B6H         LINE#         2914
  C:D4B6H         LINE#         2922
  C:D4B6H         LINE#         2923
  C:D4B9H         LINE#         2924
  C:D4BDH         LINE#         2925
  -------         ENDPROC       COLOR_BAR_OFF
  -------         PROC          HSCAN_L_TO_R
  -------         DO            
  D:0007H         SYMBOL        temp
  -------         ENDDO         
  C:D4C0H         LINE#         2927
  C:D4C0H         LINE#         2928
  C:D4C0H         LINE#         2937
  C:D4C0H         LINE#         2938
  C:D4C3H         LINE#         2939
  C:D4C7H         LINE#         2940
  -------         ENDPROC       HSCAN_L_TO_R
  -------         PROC          HSCAN_R_TO_L
  -------         DO            
  D:0007H         SYMBOL        temp
  -------         ENDDO         
  C:D4CAH         LINE#         2942
  C:D4CAH         LINE#         2943
  C:D4CAH         LINE#         2952
  C:D4CAH         LINE#         2953
  C:D4CDH         LINE#         2954
  C:D4D1H         LINE#         2955
  -------         ENDPROC       HSCAN_R_TO_L
  -------         PROC          VSCAN_T_TO_B
  -------         DO            
  D:0007H         SYMBOL        temp
  -------         ENDDO         
  C:D4D4H         LINE#         2957
  C:D4D4H         LINE#         2958
  C:D4D4H         LINE#         2967
  C:D4D4H         LINE#         2968
  C:D4D7H         LINE#         2969
  C:D4DBH         LINE#         2970
  -------         ENDPROC       VSCAN_T_TO_B
  -------         PROC          VSCAN_B_TO_T
  -------         DO            
  D:0007H         SYMBOL        temp
  -------         ENDDO         
  C:D4DEH         LINE#         2972
  C:D4DEH         LINE#         2973
  C:D4DEH         LINE#         2982
  C:D4DEH         LINE#         2983
  C:D4E1H         LINE#         2984
  C:D4E5H         LINE#         2985
BL51 BANKED LINKER/LOCATER V6.22                                                      07/02/2019  17:10:49  PAGE 76


  -------         ENDPROC       VSCAN_B_TO_T
  -------         PROC          PDATA_SET_RGB
  -------         DO            
  D:0007H         SYMBOL        temp
  -------         ENDDO         
  C:D4E8H         LINE#         2987
  C:D4E8H         LINE#         2988
  C:D4E8H         LINE#         3000
  C:D4E8H         LINE#         3001
  C:D4EBH         LINE#         3002
  C:D4EFH         LINE#         3003
  -------         ENDPROC       PDATA_SET_RGB
  -------         PROC          PDATA_SET_RBG
  -------         DO            
  D:0007H         SYMBOL        temp
  -------         ENDDO         
  C:D366H         LINE#         3005
  C:D366H         LINE#         3006
  C:D366H         LINE#         3018
  C:D366H         LINE#         3019
  C:D369H         LINE#         3020
  C:D36CH         LINE#         3021
  C:D36FH         LINE#         3022
  -------         ENDPROC       PDATA_SET_RBG
  -------         PROC          PDATA_SET_GRB
  -------         DO            
  D:0007H         SYMBOL        temp
  -------         ENDDO         
  C:D372H         LINE#         3024
  C:D372H         LINE#         3025
  C:D372H         LINE#         3037
  C:D372H         LINE#         3038
  C:D375H         LINE#         3039
  C:D378H         LINE#         3040
  C:D37BH         LINE#         3041
  -------         ENDPROC       PDATA_SET_GRB
  -------         PROC          PDATA_SET_GBR
  -------         DO            
  D:0007H         SYMBOL        temp
  -------         ENDDO         
  C:D260H         LINE#         3043
  C:D260H         LINE#         3044
  C:D260H         LINE#         3056
  C:D260H         LINE#         3057
  C:D263H         LINE#         3058
  C:D266H         LINE#         3059
  C:D268H         LINE#         3060
  C:D26BH         LINE#         3061
  -------         ENDPROC       PDATA_SET_GBR
  -------         PROC          PDATA_SET_BRG
  -------         DO            
  D:0007H         SYMBOL        temp
  -------         ENDDO         
  C:D37EH         LINE#         3063
  C:D37EH         LINE#         3064
  C:D37EH         LINE#         3076
  C:D37EH         LINE#         3077
BL51 BANKED LINKER/LOCATER V6.22                                                      07/02/2019  17:10:49  PAGE 77


  C:D381H         LINE#         3078
  C:D384H         LINE#         3079
  C:D387H         LINE#         3080
  -------         ENDPROC       PDATA_SET_BRG
  -------         PROC          PDATA_SET_BGR
  -------         DO            
  D:0007H         SYMBOL        temp
  -------         ENDDO         
  C:D26EH         LINE#         3082
  C:D26EH         LINE#         3083
  C:D26EH         LINE#         3095
  C:D26EH         LINE#         3096
  C:D271H         LINE#         3097
  C:D274H         LINE#         3098
  C:D276H         LINE#         3099
  C:D279H         LINE#         3100
  -------         ENDPROC       PDATA_SET_BGR
  -------         PROC          PDATA_IDLE_STATE
  -------         DO            
  D:0007H         SYMBOL        temp
  -------         ENDDO         
  C:D4F2H         LINE#         3103
  C:D4F2H         LINE#         3104
  C:D4F2H         LINE#         3107
  C:D4F2H         LINE#         3108
  C:D4F5H         LINE#         3109
  C:D4F9H         LINE#         3110
  -------         ENDPROC       PDATA_IDLE_STATE
  -------         PROC          HSYNC_LOW_ACTIVE
  -------         DO            
  D:0007H         SYMBOL        temp
  -------         ENDDO         
  C:CDBFH         LINE#         3116
  C:CDBFH         LINE#         3117
  C:CDBFH         LINE#         3125
  C:CDC4H         LINE#         3126
  C:CDC7H         LINE#         3127
  C:CDCBH         LINE#         3128
  -------         ENDPROC       HSYNC_LOW_ACTIVE
  -------         PROC          HSYNC_HIGH_ACTIVE
  -------         DO            
  D:0007H         SYMBOL        temp
  -------         ENDDO         
  C:CDCEH         LINE#         3130
  C:CDCEH         LINE#         3131
  C:CDCEH         LINE#         3139
  C:CDD3H         LINE#         3140
  C:CDD6H         LINE#         3141
  C:CDDAH         LINE#         3142
  -------         ENDPROC       HSYNC_HIGH_ACTIVE
  -------         PROC          VSYNC_LOW_ACTIVE
  -------         DO            
  D:0007H         SYMBOL        temp
  -------         ENDDO         
  C:CDDDH         LINE#         3144
  C:CDDDH         LINE#         3145
  C:CDDDH         LINE#         3153
BL51 BANKED LINKER/LOCATER V6.22                                                      07/02/2019  17:10:49  PAGE 78


  C:CDE2H         LINE#         3154
  C:CDE5H         LINE#         3155
  C:CDE9H         LINE#         3156
  -------         ENDPROC       VSYNC_LOW_ACTIVE
  -------         PROC          VSYNC_HIGH_ACTIVE
  -------         DO            
  D:0007H         SYMBOL        temp
  -------         ENDDO         
  C:CDECH         LINE#         3158
  C:CDECH         LINE#         3159
  C:CDECH         LINE#         3167
  C:CDF1H         LINE#         3168
  C:CDF4H         LINE#         3169
  C:CDF8H         LINE#         3170
  -------         ENDPROC       VSYNC_HIGH_ACTIVE
  -------         PROC          DE_LOW_ACTIVE
  -------         DO            
  D:0007H         SYMBOL        temp
  -------         ENDDO         
  C:CDFBH         LINE#         3172
  C:CDFBH         LINE#         3173
  C:CDFBH         LINE#         3181
  C:CE00H         LINE#         3182
  C:CE03H         LINE#         3183
  C:CE07H         LINE#         3184
  -------         ENDPROC       DE_LOW_ACTIVE
  -------         PROC          DE_HIGH_ACTIVE
  -------         DO            
  D:0007H         SYMBOL        temp
  -------         ENDDO         
  C:CE0AH         LINE#         3186
  C:CE0AH         LINE#         3187
  C:CE0AH         LINE#         3195
  C:CE0FH         LINE#         3196
  C:CE12H         LINE#         3197
  C:CE16H         LINE#         3198
  -------         ENDPROC       DE_HIGH_ACTIVE
  -------         PROC          IDLE_DE_LOW
  -------         DO            
  D:0007H         SYMBOL        temp
  -------         ENDDO         
  C:CE19H         LINE#         3200
  C:CE19H         LINE#         3201
  C:CE19H         LINE#         3209
  C:CE1EH         LINE#         3210
  C:CE21H         LINE#         3211
  C:CE25H         LINE#         3212
  -------         ENDPROC       IDLE_DE_LOW
  -------         PROC          IDLE_DE_HIGH
  -------         DO            
  D:0007H         SYMBOL        temp
  -------         ENDDO         
  C:CE28H         LINE#         3214
  C:CE28H         LINE#         3215
  C:CE28H         LINE#         3223
  C:CE2DH         LINE#         3224
  C:CE30H         LINE#         3225
BL51 BANKED LINKER/LOCATER V6.22                                                      07/02/2019  17:10:49  PAGE 79


  C:CE34H         LINE#         3226
  -------         ENDPROC       IDLE_DE_HIGH
  -------         PROC          IDLE_PCLK_LOW
  -------         DO            
  D:0007H         SYMBOL        temp
  -------         ENDDO         
  C:CE37H         LINE#         3228
  C:CE37H         LINE#         3229
  C:CE37H         LINE#         3237
  C:CE3CH         LINE#         3238
  C:CE3FH         LINE#         3239
  C:CE43H         LINE#         3240
  -------         ENDPROC       IDLE_PCLK_LOW
  -------         PROC          IDLE_PCLK_HIGH
  -------         DO            
  D:0007H         SYMBOL        temp
  -------         ENDDO         
  C:CE46H         LINE#         3242
  C:CE46H         LINE#         3243
  C:CE46H         LINE#         3251
  C:CE4BH         LINE#         3252
  C:CE4EH         LINE#         3253
  C:CE52H         LINE#         3254
  -------         ENDPROC       IDLE_PCLK_HIGH
  -------         PROC          IDLE_PDAT_LOW
  -------         DO            
  D:0007H         SYMBOL        temp
  -------         ENDDO         
  C:CE55H         LINE#         3256
  C:CE55H         LINE#         3257
  C:CE55H         LINE#         3265
  C:CE5AH         LINE#         3266
  C:CE5DH         LINE#         3267
  C:CE61H         LINE#         3268
  -------         ENDPROC       IDLE_PDAT_LOW
  -------         PROC          IDLE_PDAT_HIGH
  -------         DO            
  D:0007H         SYMBOL        temp
  -------         ENDDO         
  C:CE64H         LINE#         3270
  C:CE64H         LINE#         3271
  C:CE64H         LINE#         3279
  C:CE69H         LINE#         3280
  C:CE6CH         LINE#         3281
  C:CE70H         LINE#         3282
  -------         ENDPROC       IDLE_PDAT_HIGH
  -------         PROC          IDLE_HSYNC_LOW
  -------         DO            
  D:0007H         SYMBOL        temp
  -------         ENDDO         
  C:CE73H         LINE#         3284
  C:CE73H         LINE#         3285
  C:CE73H         LINE#         3293
  C:CE78H         LINE#         3294
  C:CE7BH         LINE#         3295
  C:CE7FH         LINE#         3296
  -------         ENDPROC       IDLE_HSYNC_LOW
BL51 BANKED LINKER/LOCATER V6.22                                                      07/02/2019  17:10:49  PAGE 80


  -------         PROC          IDLE_HSYNC_HIGH
  -------         DO            
  D:0007H         SYMBOL        temp
  -------         ENDDO         
  C:CE82H         LINE#         3298
  C:CE82H         LINE#         3299
  C:CE82H         LINE#         3307
  C:CE87H         LINE#         3308
  C:CE8AH         LINE#         3309
  C:CE8EH         LINE#         3310
  -------         ENDPROC       IDLE_HSYNC_HIGH
  -------         PROC          IDLE_VSYNC_LOW
  -------         DO            
  D:0007H         SYMBOL        temp
  -------         ENDDO         
  C:CE91H         LINE#         3312
  C:CE91H         LINE#         3313
  C:CE91H         LINE#         3321
  C:CE96H         LINE#         3322
  C:CE99H         LINE#         3323
  C:CE9DH         LINE#         3324
  -------         ENDPROC       IDLE_VSYNC_LOW
  -------         PROC          IDLE_VSYNC_HIGH
  -------         DO            
  D:0007H         SYMBOL        temp
  -------         ENDDO         
  C:CEA0H         LINE#         3326
  C:CEA0H         LINE#         3327
  C:CEA0H         LINE#         3335
  C:CEA5H         LINE#         3336
  C:CEA8H         LINE#         3337
  C:CEACH         LINE#         3338
  -------         ENDPROC       IDLE_VSYNC_HIGH
  -------         PROC          _LCD_HORIZONTALWIDTH_VERTICALHEIGHT
  X:022AH         SYMBOL        WX
  X:022CH         SYMBOL        HY
  -------         DO            
  D:0003H         SYMBOL        temp
  -------         ENDDO         
  C:AA38H         LINE#         3342
  C:AA48H         LINE#         3343
  C:AA48H         LINE#         3357
  C:AA50H         LINE#         3358
  C:AA50H         LINE#         3359
  C:AA55H         LINE#         3360
  C:AA5AH         LINE#         3362
  C:AA5FH         LINE#         3363
  C:AA65H         LINE#         3365
  C:AA65H         LINE#         3366
  C:AA65H         LINE#         3367
  C:AA65H         LINE#         3369
  C:AA65H         LINE#         3370
  C:AA65H         LINE#         3371
  C:AA65H         LINE#         3372
  C:AA67H         LINE#         3374
  C:AA67H         LINE#         3375
  C:AA79H         LINE#         3376
BL51 BANKED LINKER/LOCATER V6.22                                                      07/02/2019  17:10:49  PAGE 81


  C:AA7EH         LINE#         3377
  C:AA83H         LINE#         3379
  C:AA8AH         LINE#         3380
  C:AA8FH         LINE#         3381
  C:AA94H         LINE#         3383
  C:AA99H         LINE#         3384
  C:AA9EH         LINE#         3385
  C:AAA3H         LINE#         3387
  C:AAADH         LINE#         3388
  C:AAB2H         LINE#         3389
  C:AAB7H         LINE#         3390
  C:AAB7H         LINE#         3391
  -------         ENDPROC       _LCD_HORIZONTALWIDTH_VERTICALHEIGHT
  -------         PROC          _LCD_HORIZONTAL_NON_DISPLAY
  D:0002H         SYMBOL        WX
  -------         DO            
  D:0004H         SYMBOL        temp
  -------         ENDDO         
  C:B55AH         LINE#         3393
  C:B55EH         LINE#         3394
  C:B55EH         LINE#         3408
  C:B567H         LINE#         3409
  C:B567H         LINE#         3410
  C:B56CH         LINE#         3411
  C:B571H         LINE#         3413
  C:B576H         LINE#         3414
  C:B578H         LINE#         3415
  C:B57AH         LINE#         3417
  C:B57AH         LINE#         3418
  C:B588H         LINE#         3419
  C:B58DH         LINE#         3420
  C:B592H         LINE#         3422
  C:B596H         LINE#         3423
  C:B59BH         LINE#         3424
  C:B5A0H         LINE#         3425
  C:B5A0H         LINE#         3426
  -------         ENDPROC       _LCD_HORIZONTAL_NON_DISPLAY
  -------         PROC          _LCD_HSYNC_START_POSITION
  D:0002H         SYMBOL        WX
  -------         DO            
  D:0004H         SYMBOL        temp
  -------         ENDDO         
  C:BC8CH         LINE#         3428
  C:BC90H         LINE#         3429
  C:BC90H         LINE#         3438
  C:BC99H         LINE#         3439
  C:BC99H         LINE#         3440
  C:BC9EH         LINE#         3441
  C:BCA0H         LINE#         3442
  C:BCA2H         LINE#         3444
  C:BCA2H         LINE#         3445
  C:BCB0H         LINE#         3446
  C:BCB5H         LINE#         3447
  C:BCBAH         LINE#         3448
  C:BCBAH         LINE#         3449
  -------         ENDPROC       _LCD_HSYNC_START_POSITION
  -------         PROC          _LCD_HSYNC_PULSE_WIDTH
BL51 BANKED LINKER/LOCATER V6.22                                                      07/02/2019  17:10:49  PAGE 82


  D:0002H         SYMBOL        WX
  -------         DO            
  D:0004H         SYMBOL        temp
  -------         ENDDO         
  C:BCBBH         LINE#         3451
  C:BCBFH         LINE#         3452
  C:BCBFH         LINE#         3459
  C:BCC8H         LINE#         3460
  C:BCC8H         LINE#         3461
  C:BCCDH         LINE#         3462
  C:BCCFH         LINE#         3463
  C:BCD1H         LINE#         3465
  C:BCD1H         LINE#         3466
  C:BCDFH         LINE#         3467
  C:BCE4H         LINE#         3468
  C:BCE9H         LINE#         3469
  C:BCE9H         LINE#         3470
  -------         ENDPROC       _LCD_HSYNC_PULSE_WIDTH
  -------         PROC          _LCD_VERTICAL_NON_DISPLAY
  D:0006H         SYMBOL        HY
  -------         DO            
  D:0004H         SYMBOL        temp
  -------         ENDDO         
  C:C242H         LINE#         3472
  C:C242H         LINE#         3473
  C:C242H         LINE#         3482
  C:C245H         LINE#         3483
  C:C24AH         LINE#         3484
  C:C24FH         LINE#         3486
  C:C254H         LINE#         3487
  -------         ENDPROC       _LCD_VERTICAL_NON_DISPLAY
  -------         PROC          _LCD_VSYNC_START_POSITION
  D:0006H         SYMBOL        HY
  -------         DO            
  D:0004H         SYMBOL        temp
  -------         ENDDO         
  C:D297H         LINE#         3490
  C:D297H         LINE#         3491
  C:D297H         LINE#         3498
  C:D29AH         LINE#         3499
  C:D29FH         LINE#         3500
  -------         ENDPROC       _LCD_VSYNC_START_POSITION
  -------         PROC          _LCD_VSYNC_PULSE_WIDTH
  D:0006H         SYMBOL        HY
  -------         DO            
  D:0004H         SYMBOL        temp
  -------         ENDDO         
  C:D2A4H         LINE#         3503
  C:D2A4H         LINE#         3504
  C:D2A4H         LINE#         3511
  C:D2A7H         LINE#         3512
  C:D2ACH         LINE#         3513
  -------         ENDPROC       _LCD_VSYNC_PULSE_WIDTH
  C:AF78H         SYMBOL        L?1059
  -------         PROC          L?1058
  -------         ENDPROC       L?1058
  C:AF78H         SYMBOL        L?1059
BL51 BANKED LINKER/LOCATER V6.22                                                      07/02/2019  17:10:49  PAGE 83


  -------         PROC          _MAIN_IMAGE_START_ADDRESS
  X:02FCH         SYMBOL        Addr
  C:AF80H         LINE#         3516
  C:AF86H         LINE#         3517
  C:AF86H         LINE#         3524
  C:AF8EH         LINE#         3525
  C:AFA8H         LINE#         3526
  C:AFC2H         LINE#         3527
  -------         ENDPROC       _MAIN_IMAGE_START_ADDRESS
  -------         PROC          _MAIN_IMAGE_WIDTH
  D:0002H         SYMBOL        WX
  C:C433H         LINE#         3530
  C:C437H         LINE#         3531
  C:C437H         LINE#         3539
  C:C43EH         LINE#         3540
  -------         ENDPROC       _MAIN_IMAGE_WIDTH
  C:B668H         SYMBOL        L?1011
  C:B673H         SYMBOL        L?1012
  C:B67AH         SYMBOL        L?1013
  -------         PROC          L?1010
  -------         ENDPROC       L?1010
  C:B668H         SYMBOL        L?1011
  C:B673H         SYMBOL        L?1012
  C:B67AH         SYMBOL        L?1013
  -------         PROC          _MAIN_WINDOW_START_XY
  X:02FAH         SYMBOL        WX
  D:0002H         SYMBOL        HY
  C:B67FH         LINE#         3543
  C:B68BH         LINE#         3544
  C:B68BH         LINE#         3559
  C:B691H         LINE#         3560
  C:B69BH         LINE#         3562
  C:B6A2H         LINE#         3563
  -------         ENDPROC       _MAIN_WINDOW_START_XY
  -------         PROC          L?1046
  -------         ENDPROC       L?1046
  -------         PROC          _PIP_DISPLAY_START_XY
  X:02F0H         SYMBOL        WX
  D:0002H         SYMBOL        HY
  C:B4A1H         LINE#         3566
  C:B4ADH         LINE#         3567
  C:B4ADH         LINE#         3586
  C:B4B3H         LINE#         3587
  C:B4BDH         LINE#         3589
  C:B4C4H         LINE#         3590
  -------         ENDPROC       _PIP_DISPLAY_START_XY
  -------         PROC          _PIP_IMAGE_START_ADDRESS
  X:0234H         SYMBOL        Addr
  C:B040H         LINE#         3593
  C:B046H         LINE#         3594
  C:B046H         LINE#         3601
  C:B053H         LINE#         3602
  C:B06DH         LINE#         3603
  C:B087H         LINE#         3604
  -------         ENDPROC       _PIP_IMAGE_START_ADDRESS
  -------         PROC          _PIP_IMAGE_WIDTH
  D:0002H         SYMBOL        WX
BL51 BANKED LINKER/LOCATER V6.22                                                      07/02/2019  17:10:49  PAGE 84


  C:C445H         LINE#         3607
  C:C449H         LINE#         3608
  C:C449H         LINE#         3619
  C:C450H         LINE#         3620
  -------         ENDPROC       _PIP_IMAGE_WIDTH
  -------         PROC          L?1045
  -------         ENDPROC       L?1045
  -------         PROC          _PIP_WINDOW_IMAGE_START_XY
  X:0232H         SYMBOL        WX
  D:0002H         SYMBOL        HY
  C:B4E9H         LINE#         3623
  C:B4F5H         LINE#         3624
  C:B4F5H         LINE#         3643
  C:B4FBH         LINE#         3644
  C:B505H         LINE#         3646
  C:B50CH         LINE#         3647
  -------         ENDPROC       _PIP_WINDOW_IMAGE_START_XY
  -------         PROC          _PIP_WINDOW_WIDTH_HEIGHT
  X:0234H         SYMBOL        WX
  D:0002H         SYMBOL        HY
  C:BDF8H         LINE#         3650
  C:BE04H         LINE#         3651
  C:BE04H         LINE#         3668
  C:BE0AH         LINE#         3669
  C:BE14H         LINE#         3671
  C:BE1BH         LINE#         3672
  -------         ENDPROC       _PIP_WINDOW_WIDTH_HEIGHT
  -------         PROC          ENABLE_GRAPHIC_CURSOR
  -------         DO            
  D:0007H         SYMBOL        temp
  -------         ENDDO         
  C:CEAFH         LINE#         3676
  C:CEAFH         LINE#         3677
  C:CEAFH         LINE#         3685
  C:CEB4H         LINE#         3686
  C:CEB7H         LINE#         3687
  C:CEBBH         LINE#         3688
  -------         ENDPROC       ENABLE_GRAPHIC_CURSOR
  -------         PROC          DISABLE_GRAPHIC_CURSOR
  -------         DO            
  D:0007H         SYMBOL        temp
  -------         ENDDO         
  C:CEBEH         LINE#         3690
  C:CEBEH         LINE#         3691
  C:CEBEH         LINE#         3699
  C:CEC3H         LINE#         3700
  C:CEC6H         LINE#         3701
  C:CECAH         LINE#         3702
  -------         ENDPROC       DISABLE_GRAPHIC_CURSOR
  -------         PROC          SELECT_GRAPHIC_CURSOR_1
  -------         DO            
  D:0007H         SYMBOL        temp
  -------         ENDDO         
  C:C794H         LINE#         3705
  C:C794H         LINE#         3706
  C:C794H         LINE#         3717
  C:C799H         LINE#         3718
BL51 BANKED LINKER/LOCATER V6.22                                                      07/02/2019  17:10:49  PAGE 85


  C:C79CH         LINE#         3719
  C:C79FH         LINE#         3720
  C:C7A2H         LINE#         3721
  -------         ENDPROC       SELECT_GRAPHIC_CURSOR_1
  -------         PROC          L?1075
  -------         ENDPROC       L?1075
  -------         PROC          SELECT_GRAPHIC_CURSOR_2
  -------         DO            
  D:0007H         SYMBOL        temp
  -------         ENDDO         
  C:C171H         LINE#         3723
  C:C171H         LINE#         3724
  C:C171H         LINE#         3735
  C:C176H         LINE#         3736
  C:C179H         LINE#         3737
  C:C17CH         LINE#         3738
  C:C17FH         LINE#         3739
  -------         ENDPROC       SELECT_GRAPHIC_CURSOR_2
  -------         PROC          SELECT_GRAPHIC_CURSOR_3
  -------         DO            
  D:0007H         SYMBOL        temp
  -------         ENDDO         
  C:C7A5H         LINE#         3741
  C:C7A5H         LINE#         3742
  C:C7A5H         LINE#         3753
  C:C7AAH         LINE#         3754
  C:C7ADH         LINE#         3755
  C:C7B0H         LINE#         3756
  C:C7B3H         LINE#         3757
  -------         ENDPROC       SELECT_GRAPHIC_CURSOR_3
  -------         PROC          SELECT_GRAPHIC_CURSOR_4
  -------         DO            
  D:0007H         SYMBOL        temp
  -------         ENDDO         
  C:C7B6H         LINE#         3759
  C:C7B6H         LINE#         3760
  C:C7B6H         LINE#         3771
  C:C7BBH         LINE#         3772
  C:C7BEH         LINE#         3773
  C:C7C1H         LINE#         3774
  C:C7C4H         LINE#         3775
  -------         ENDPROC       SELECT_GRAPHIC_CURSOR_4
  -------         PROC          ENABLE_TEXT_CURSOR
  -------         DO            
  D:0007H         SYMBOL        temp
  -------         ENDDO         
  C:CECDH         LINE#         3778
  C:CECDH         LINE#         3779
  C:CECDH         LINE#         3789
  C:CED2H         LINE#         3790
  C:CED5H         LINE#         3791
  C:CED9H         LINE#         3792
  -------         ENDPROC       ENABLE_TEXT_CURSOR
  -------         PROC          DISABLE_TEXT_CURSOR
  -------         DO            
  D:0007H         SYMBOL        temp
  -------         ENDDO         
BL51 BANKED LINKER/LOCATER V6.22                                                      07/02/2019  17:10:49  PAGE 86


  C:CEDCH         LINE#         3794
  C:CEDCH         LINE#         3795
  C:CEDCH         LINE#         3805
  C:CEE1H         LINE#         3806
  C:CEE4H         LINE#         3807
  C:CEE8H         LINE#         3808
  -------         ENDPROC       DISABLE_TEXT_CURSOR
  -------         PROC          ENABLE_TEXT_CURSOR_BLINKING
  -------         DO            
  D:0007H         SYMBOL        temp
  -------         ENDDO         
  C:CEEBH         LINE#         3811
  C:CEEBH         LINE#         3812
  C:CEEBH         LINE#         3820
  C:CEF0H         LINE#         3821
  C:CEF3H         LINE#         3822
  C:CEF7H         LINE#         3823
  -------         ENDPROC       ENABLE_TEXT_CURSOR_BLINKING
  -------         PROC          DISABLE_TEXT_CURSOR_BLINKING
  -------         DO            
  D:0007H         SYMBOL        temp
  -------         ENDDO         
  C:CEFAH         LINE#         3825
  C:CEFAH         LINE#         3826
  C:CEFAH         LINE#         3834
  C:CEFFH         LINE#         3835
  C:CF02H         LINE#         3836
  C:CF06H         LINE#         3837
  -------         ENDPROC       DISABLE_TEXT_CURSOR_BLINKING
  -------         PROC          _BLINKING_TIME_FRAMES
  D:0004H         SYMBOL        temp
  C:D38AH         LINE#         3840
  C:D38CH         LINE#         3841
  C:D38CH         LINE#         3850
  C:D391H         LINE#         3851
  -------         ENDPROC       _BLINKING_TIME_FRAMES
  -------         PROC          _TEXT_CURSOR_H_V
  D:0082H         SYMBOL        WX
  D:0002H         SYMBOL        HY
  C:C064H         LINE#         3854
  C:C06CH         LINE#         3855
  C:C06CH         LINE#         3870
  C:C071H         LINE#         3871
  C:C076H         LINE#         3872
  C:C07BH         LINE#         3873
  -------         ENDPROC       _TEXT_CURSOR_H_V
  -------         PROC          L?1074
  -------         ENDPROC       L?1074
  -------         PROC          _GRAPHIC_CURSOR_XY
  X:022EH         SYMBOL        WX
  D:0002H         SYMBOL        HY
  C:BBA1H         LINE#         3876
  C:BBADH         LINE#         3877
  C:BBADH         LINE#         3885
  C:BBB3H         LINE#         3886
  C:BBBDH         LINE#         3888
  C:BBC4H         LINE#         3889
BL51 BANKED LINKER/LOCATER V6.22                                                      07/02/2019  17:10:49  PAGE 87


  -------         ENDPROC       _GRAPHIC_CURSOR_XY
  -------         PROC          _SET_GRAPHIC_CURSOR_COLOR_1
  D:0007H         SYMBOL        temp
  C:D5C1H         LINE#         3892
  C:D5C1H         LINE#         3893
  C:D5C1H         LINE#         3898
  -------         ENDPROC       _SET_GRAPHIC_CURSOR_COLOR_1
  -------         PROC          L?1072
  -------         ENDPROC       L?1072
  -------         PROC          _SET_GRAPHIC_CURSOR_COLOR_2
  D:0007H         SYMBOL        temp
  C:D283H         LINE#         3901
  C:D283H         LINE#         3902
  C:D283H         LINE#         3907
  -------         ENDPROC       _SET_GRAPHIC_CURSOR_COLOR_2
  C:ABB6H         SYMBOL        L?1001
  C:ABBAH         SYMBOL        L?1002
  -------         PROC          L?1000
  -------         ENDPROC       L?1000
  C:ABB6H         SYMBOL        L?1001
  C:ABBAH         SYMBOL        L?1002
  -------         PROC          _CANVAS_IMAGE_START_ADDRESS
  X:02F6H         SYMBOL        Addr
  C:ABBEH         LINE#         3910
  C:ABC4H         LINE#         3911
  C:ABC4H         LINE#         3918
  C:ABD1H         LINE#         3919
  C:ABEBH         LINE#         3920
  C:AC05H         LINE#         3921
  -------         ENDPROC       _CANVAS_IMAGE_START_ADDRESS
  -------         PROC          _CANVAS_IMAGE_WIDTH
  D:0002H         SYMBOL        WX
  C:C457H         LINE#         3924
  C:C45BH         LINE#         3925
  C:C45BH         LINE#         3930
  C:C462H         LINE#         3931
  -------         ENDPROC       _CANVAS_IMAGE_WIDTH
  C:B6F3H         SYMBOL        L?1028
  C:B6F5H         SYMBOL        L?1029
  C:B6F8H         SYMBOL        L?1030
  -------         PROC          L?1027
  -------         ENDPROC       L?1027
  C:B6F3H         SYMBOL        L?1028
  C:B6F5H         SYMBOL        L?1029
  C:B6F8H         SYMBOL        L?1030
  -------         PROC          _ACTIVE_WINDOW_XY
  X:02F4H         SYMBOL        WX
  D:0002H         SYMBOL        HY
  C:B6FDH         LINE#         3934
  C:B709H         LINE#         3935
  C:B709H         LINE#         3942
  C:B70FH         LINE#         3943
  C:B719H         LINE#         3945
  C:B720H         LINE#         3946
  -------         ENDPROC       _ACTIVE_WINDOW_XY
  C:AF12H         SYMBOL        L?0949
  C:AF2CH         SYMBOL        L?0950
BL51 BANKED LINKER/LOCATER V6.22                                                      07/02/2019  17:10:49  PAGE 88


  C:AF30H         SYMBOL        L?0951
  C:AF32H         SYMBOL        L?0952
  C:AF34H         SYMBOL        L?0953
  C:AF3EH         SYMBOL        L?0954
  C:AF46H         SYMBOL        L?0955
  -------         PROC          L?0948
  -------         ENDPROC       L?0948
  C:AF12H         SYMBOL        L?0949
  C:AF2CH         SYMBOL        L?0950
  C:AF30H         SYMBOL        L?0951
  C:AF32H         SYMBOL        L?0952
  C:AF34H         SYMBOL        L?0953
  C:AF3EH         SYMBOL        L?0954
  C:AF46H         SYMBOL        L?0955
  -------         PROC          _ACTIVE_WINDOW_WH
  X:02F2H         SYMBOL        WX
  D:0002H         SYMBOL        HY
  C:AF4EH         LINE#         3949
  C:AF5AH         LINE#         3950
  C:AF5AH         LINE#         3957
  C:AF60H         LINE#         3958
  C:AF6AH         LINE#         3960
  C:AF71H         LINE#         3961
  -------         ENDPROC       _ACTIVE_WINDOW_WH
  -------         PROC          SELECT_WRITE_DATA_POSITION
  -------         DO            
  D:0007H         SYMBOL        temp
  -------         ENDDO         
  C:CF09H         LINE#         3964
  C:CF09H         LINE#         3965
  C:CF09H         LINE#         3973
  C:CF0EH         LINE#         3974
  C:CF11H         LINE#         3975
  C:CF15H         LINE#         3976
  -------         ENDPROC       SELECT_WRITE_DATA_POSITION
  -------         PROC          SELECT_READ_DATA_POSITION
  -------         DO            
  D:0007H         SYMBOL        temp
  -------         ENDDO         
  C:CF18H         LINE#         3978
  C:CF18H         LINE#         3979
  C:CF18H         LINE#         3987
  C:CF1DH         LINE#         3988
  C:CF20H         LINE#         3989
  C:CF24H         LINE#         3990
  -------         ENDPROC       SELECT_READ_DATA_POSITION
  -------         PROC          MEMORY_XY_MODE
  -------         DO            
  D:0007H         SYMBOL        temp
  -------         ENDDO         
  C:CF27H         LINE#         3992
  C:CF27H         LINE#         3993
  C:CF27H         LINE#         4001
  C:CF2CH         LINE#         4002
  C:CF2FH         LINE#         4003
  C:CF33H         LINE#         4004
  -------         ENDPROC       MEMORY_XY_MODE
BL51 BANKED LINKER/LOCATER V6.22                                                      07/02/2019  17:10:49  PAGE 89


  -------         PROC          MEMORY_LINEAR_MODE
  -------         DO            
  D:0007H         SYMBOL        temp
  -------         ENDDO         
  C:CF36H         LINE#         4006
  C:CF36H         LINE#         4007
  C:CF36H         LINE#         4015
  C:CF3BH         LINE#         4016
  C:CF3EH         LINE#         4017
  C:CF42H         LINE#         4018
  -------         ENDPROC       MEMORY_LINEAR_MODE
  -------         PROC          MEMORY_8BPP_MODE
  -------         DO            
  D:0007H         SYMBOL        temp
  -------         ENDDO         
  C:C7C7H         LINE#         4020
  C:C7C7H         LINE#         4021
  C:C7C7H         LINE#         4034
  C:C7CCH         LINE#         4035
  C:C7CFH         LINE#         4036
  C:C7D2H         LINE#         4037
  C:C7D5H         LINE#         4038
  -------         ENDPROC       MEMORY_8BPP_MODE
  -------         PROC          MEMORY_16BPP_MODE
  -------         DO            
  D:0007H         SYMBOL        temp
  -------         ENDDO         
  C:C7D8H         LINE#         4040
  C:C7D8H         LINE#         4041
  C:C7D8H         LINE#         4054
  C:C7DDH         LINE#         4055
  C:C7E0H         LINE#         4056
  C:C7E3H         LINE#         4057
  C:C7E6H         LINE#         4058
  -------         ENDPROC       MEMORY_16BPP_MODE
  -------         PROC          MEMORY_24BPP_MODE
  -------         DO            
  D:0007H         SYMBOL        temp
  -------         ENDDO         
  C:C7E9H         LINE#         4060
  C:C7E9H         LINE#         4061
  C:C7E9H         LINE#         4074
  C:C7EEH         LINE#         4075
  C:C7F1H         LINE#         4076
  C:C7F4H         LINE#         4077
  C:C7F7H         LINE#         4078
  -------         ENDPROC       MEMORY_24BPP_MODE
  C:B97CH         SYMBOL        L?1051
  -------         PROC          L?1050
  -------         ENDPROC       L?1050
  C:B97CH         SYMBOL        L?1051
  -------         PROC          _GOTO_PIXEL_XY
  X:02F0H         SYMBOL        WX
  D:0002H         SYMBOL        HY
  C:B986H         LINE#         4082
  C:B992H         LINE#         4083
  C:B992H         LINE#         4095
BL51 BANKED LINKER/LOCATER V6.22                                                      07/02/2019  17:10:49  PAGE 90


  C:B998H         LINE#         4096
  C:B9A2H         LINE#         4098
  C:B9A9H         LINE#         4099
  -------         ENDPROC       _GOTO_PIXEL_XY
  -------         PROC          _GOTO_LINEAR_ADDR
  X:0356H         SYMBOL        Addr
  C:B1C4H         LINE#         4101
  C:B1CAH         LINE#         4102
  C:B1CAH         LINE#         4103
  C:B1D2H         LINE#         4104
  C:B1ECH         LINE#         4105
  C:B206H         LINE#         4106
  -------         ENDPROC       _GOTO_LINEAR_ADDR
  C:BBCDH         SYMBOL        L?0996
  -------         PROC          L?0995
  -------         ENDPROC       L?0995
  C:BBCDH         SYMBOL        L?0996
  -------         PROC          _GOTO_TEXT_XY
  X:02EAH         SYMBOL        WX
  D:0002H         SYMBOL        HY
  C:BBD2H         LINE#         4111
  C:BBDEH         LINE#         4112
  C:BBDEH         LINE#         4121
  C:BBE4H         LINE#         4122
  C:BBEEH         LINE#         4124
  C:BBF5H         LINE#         4125
  -------         ENDPROC       _GOTO_TEXT_XY
  C:BB53H         SYMBOL        L?1025
  -------         PROC          L?1024
  -------         ENDPROC       L?1024
  C:BB53H         SYMBOL        L?1025
  -------         PROC          START_LINE
  C:BB5BH         LINE#         4143
  C:BB5BH         LINE#         4144
  C:BB5BH         LINE#         4145
  C:BB60H         LINE#         4146
  C:BB65H         LINE#         4147
  -------         ENDPROC       START_LINE
  -------         PROC          L?1016
  -------         ENDPROC       L?1016
  -------         PROC          START_TRIANGLE
  C:B2FEH         LINE#         4149
  C:B2FEH         LINE#         4150
  C:B2FEH         LINE#         4151
  C:B303H         LINE#         4152
  C:B308H         LINE#         4153
  -------         ENDPROC       START_TRIANGLE
  -------         PROC          START_TRIANGLE_FILL
  C:D2B1H         LINE#         4155
  C:D2B1H         LINE#         4156
  C:D2B1H         LINE#         4158
  C:D2B6H         LINE#         4159
  C:D2BBH         LINE#         4160
  -------         ENDPROC       START_TRIANGLE_FILL
  C:B5EBH         SYMBOL        L?0992
  C:B5ECH         SYMBOL        L?0993
  C:B5EEH         SYMBOL        L?0994
BL51 BANKED LINKER/LOCATER V6.22                                                      07/02/2019  17:10:49  PAGE 91


  -------         PROC          L?0991
  -------         ENDPROC       L?0991
  C:B5EBH         SYMBOL        L?0992
  C:B5ECH         SYMBOL        L?0993
  C:B5EEH         SYMBOL        L?0994
  -------         PROC          _LINE_START_XY
  X:02ECH         SYMBOL        WX
  D:0002H         SYMBOL        HY
  C:B5F6H         LINE#         4164
  C:B5F9H         LINE#         4165
  C:B5F9H         LINE#         4172
  C:B5FCH         LINE#         4173
  C:B605H         LINE#         4175
  C:B60AH         LINE#         4176
  C:B612H         LINE#         4178
  C:B617H         LINE#         4179
  C:B61CH         LINE#         4181
  C:B621H         LINE#         4182
  -------         ENDPROC       _LINE_START_XY
  C:AC9BH         SYMBOL        L?0985
  C:ACB3H         SYMBOL        L?0986
  C:ACC4H         SYMBOL        L?0987
  C:ACC5H         SYMBOL        L?0988
  -------         PROC          L?0984
  -------         ENDPROC       L?0984
  C:AC9BH         SYMBOL        L?0985
  C:ACB3H         SYMBOL        L?0986
  C:ACC4H         SYMBOL        L?0987
  C:ACC5H         SYMBOL        L?0988
  -------         PROC          _LINE_END_XY
  X:02EAH         SYMBOL        WX
  D:0002H         SYMBOL        HY
  C:ACC9H         LINE#         4186
  C:ACD5H         LINE#         4187
  C:ACD5H         LINE#         4194
  C:ACDAH         LINE#         4195
  C:ACE3H         LINE#         4197
  C:ACE8H         LINE#         4198
  C:ACF0H         LINE#         4200
  C:ACF5H         LINE#         4201
  C:ACFAH         LINE#         4203
  C:ACFFH         LINE#         4204
  -------         ENDPROC       _LINE_END_XY
  -------         PROC          _TRIANGLE_POINT1_XY
  X:022CH         SYMBOL        WX
  D:0002H         SYMBOL        HY
  C:BBFCH         LINE#         4208
  C:BBFFH         LINE#         4209
  C:BBFFH         LINE#         4216
  C:BC02H         LINE#         4217
  C:BC0BH         LINE#         4219
  C:BC10H         LINE#         4220
  C:BC18H         LINE#         4222
  C:BC1DH         LINE#         4223
  C:BC22H         LINE#         4225
  C:BC27H         LINE#         4226
  -------         ENDPROC       _TRIANGLE_POINT1_XY
BL51 BANKED LINKER/LOCATER V6.22                                                      07/02/2019  17:10:49  PAGE 92


  -------         PROC          _TRIANGLE_POINT2_XY
  X:022CH         SYMBOL        WX
  D:0002H         SYMBOL        HY
  C:B79EH         LINE#         4229
  C:B7AAH         LINE#         4230
  C:B7AAH         LINE#         4237
  C:B7AFH         LINE#         4238
  C:B7B8H         LINE#         4240
  C:B7BDH         LINE#         4241
  C:B7C5H         LINE#         4243
  C:B7CAH         LINE#         4244
  C:B7CFH         LINE#         4246
  C:B7D4H         LINE#         4247
  -------         ENDPROC       _TRIANGLE_POINT2_XY
  -------         PROC          _TRIANGLE_POINT3_XY
  X:022CH         SYMBOL        WX
  D:0002H         SYMBOL        HY
  C:B7D9H         LINE#         4250
  C:B7E5H         LINE#         4251
  C:B7E5H         LINE#         4258
  C:B7EAH         LINE#         4259
  C:B7F3H         LINE#         4261
  C:B7F8H         LINE#         4262
  C:B800H         LINE#         4264
  C:B805H         LINE#         4265
  C:B80AH         LINE#         4267
  C:B80FH         LINE#         4268
  -------         ENDPROC       _TRIANGLE_POINT3_XY
  -------         PROC          _SQUARE_START_XY
  X:0378H         SYMBOL        WX
  D:0002H         SYMBOL        HY
  C:BC2CH         LINE#         4271
  C:BC2FH         LINE#         4272
  C:BC2FH         LINE#         4279
  C:BC32H         LINE#         4280
  C:BC3BH         LINE#         4282
  C:BC40H         LINE#         4283
  C:BC48H         LINE#         4285
  C:BC4DH         LINE#         4286
  C:BC52H         LINE#         4288
  C:BC57H         LINE#         4289
  -------         ENDPROC       _SQUARE_START_XY
  -------         PROC          _SQUARE_END_XY
  X:037AH         SYMBOL        WX
  D:0002H         SYMBOL        HY
  C:B814H         LINE#         4292
  C:B820H         LINE#         4293
  C:B820H         LINE#         4300
  C:B825H         LINE#         4301
  C:B82EH         LINE#         4303
  C:B833H         LINE#         4304
  C:B83BH         LINE#         4306
  C:B840H         LINE#         4307
  C:B845H         LINE#         4309
  C:B84AH         LINE#         4310
  -------         ENDPROC       _SQUARE_END_XY
  -------         PROC          L?1057
BL51 BANKED LINKER/LOCATER V6.22                                                      07/02/2019  17:10:49  PAGE 93


  -------         ENDPROC       L?1057
  -------         PROC          START_CIRCLE_OR_ELLIPSE
  C:C000H         LINE#         4339
  C:C000H         LINE#         4340
  C:C000H         LINE#         4341
  C:C005H         LINE#         4342
  C:C00AH         LINE#         4343
  -------         ENDPROC       START_CIRCLE_OR_ELLIPSE
  -------         PROC          START_CIRCLE_OR_ELLIPSE_FILL
  C:D2BEH         LINE#         4345
  C:D2BEH         LINE#         4346
  C:D2BEH         LINE#         4347
  C:D2C3H         LINE#         4348
  C:D2C8H         LINE#         4349
  -------         ENDPROC       START_CIRCLE_OR_ELLIPSE_FILL
  -------         PROC          START_LEFT_DOWN_CURVE
  C:D2CBH         LINE#         4352
  C:D2CBH         LINE#         4353
  C:D2CBH         LINE#         4354
  C:D2D0H         LINE#         4355
  C:D2D5H         LINE#         4356
  -------         ENDPROC       START_LEFT_DOWN_CURVE
  -------         PROC          START_LEFT_UP_CURVE
  C:D2D8H         LINE#         4358
  C:D2D8H         LINE#         4359
  C:D2D8H         LINE#         4360
  C:D2DDH         LINE#         4361
  C:D2E2H         LINE#         4362
  -------         ENDPROC       START_LEFT_UP_CURVE
  -------         PROC          START_RIGHT_UP_CURVE
  C:D2E5H         LINE#         4364
  C:D2E5H         LINE#         4365
  C:D2E5H         LINE#         4366
  C:D2EAH         LINE#         4367
  C:D2EFH         LINE#         4368
  -------         ENDPROC       START_RIGHT_UP_CURVE
  -------         PROC          START_RIGHT_DOWN_CURVE
  C:D2F2H         LINE#         4370
  C:D2F2H         LINE#         4371
  C:D2F2H         LINE#         4372
  C:D2F7H         LINE#         4373
  C:D2FCH         LINE#         4374
  -------         ENDPROC       START_RIGHT_DOWN_CURVE
  -------         PROC          START_LEFT_DOWN_CURVE_FILL
  C:D2FFH         LINE#         4377
  C:D2FFH         LINE#         4378
  C:D2FFH         LINE#         4379
  C:D304H         LINE#         4380
  C:D309H         LINE#         4381
  -------         ENDPROC       START_LEFT_DOWN_CURVE_FILL
  -------         PROC          START_LEFT_UP_CURVE_FILL
  C:D30CH         LINE#         4383
  C:D30CH         LINE#         4384
  C:D30CH         LINE#         4385
  C:D311H         LINE#         4386
  C:D316H         LINE#         4387
  -------         ENDPROC       START_LEFT_UP_CURVE_FILL
BL51 BANKED LINKER/LOCATER V6.22                                                      07/02/2019  17:10:49  PAGE 94


  -------         PROC          START_RIGHT_UP_CURVE_FILL
  C:D319H         LINE#         4389
  C:D319H         LINE#         4390
  C:D319H         LINE#         4391
  C:D31EH         LINE#         4392
  C:D323H         LINE#         4393
  -------         ENDPROC       START_RIGHT_UP_CURVE_FILL
  -------         PROC          START_RIGHT_DOWN_CURVE_FILL
  C:D326H         LINE#         4395
  C:D326H         LINE#         4396
  C:D326H         LINE#         4397
  C:D32BH         LINE#         4398
  C:D330H         LINE#         4399
  -------         ENDPROC       START_RIGHT_DOWN_CURVE_FILL
  -------         PROC          L?1031
  -------         ENDPROC       L?1031
  -------         PROC          START_SQUARE
  C:BA86H         LINE#         4402
  C:BA86H         LINE#         4403
  C:BA86H         LINE#         4404
  C:BA8BH         LINE#         4405
  C:BA90H         LINE#         4406
  -------         ENDPROC       START_SQUARE
  C:BD47H         SYMBOL        L?0959
  C:BD4EH         SYMBOL        L?0960
  C:BD4FH         SYMBOL        L?0961
  C:BD51H         SYMBOL        L?0962
  C:BD5EH         SYMBOL        L?0963
  C:BD60H         SYMBOL        L?0964
  C:BD62H         SYMBOL        L?0965
  -------         PROC          L?0958
  -------         ENDPROC       L?0958
  C:BD47H         SYMBOL        L?0959
  C:BD4EH         SYMBOL        L?0960
  C:BD4FH         SYMBOL        L?0961
  C:BD51H         SYMBOL        L?0962
  C:BD5EH         SYMBOL        L?0963
  C:BD60H         SYMBOL        L?0964
  C:BD62H         SYMBOL        L?0965
  -------         PROC          START_SQUARE_FILL
  C:BD67H         LINE#         4408
  C:BD67H         LINE#         4409
  C:BD67H         LINE#         4410
  C:BD6CH         LINE#         4411
  C:BD71H         LINE#         4412
  -------         ENDPROC       START_SQUARE_FILL
  -------         PROC          L?1026
  -------         ENDPROC       L?1026
  -------         PROC          START_CIRCLE_SQUARE
  C:B5D7H         LINE#         4414
  C:B5D7H         LINE#         4415
  C:B5D7H         LINE#         4416
  C:B5DCH         LINE#         4417
  C:B5E1H         LINE#         4418
  -------         ENDPROC       START_CIRCLE_SQUARE
  -------         PROC          START_CIRCLE_SQUARE_FILL
  C:D333H         LINE#         4420
BL51 BANKED LINKER/LOCATER V6.22                                                      07/02/2019  17:10:49  PAGE 95


  C:D333H         LINE#         4421
  C:D333H         LINE#         4422
  C:D338H         LINE#         4423
  C:D33DH         LINE#         4424
  -------         ENDPROC       START_CIRCLE_SQUARE_FILL
  C:B43BH         SYMBOL        L?1038
  C:B43DH         SYMBOL        L?1039
  -------         PROC          L?1037
  -------         ENDPROC       L?1037
  C:B43BH         SYMBOL        L?1038
  C:B43DH         SYMBOL        L?1039
  -------         PROC          _CIRCLE_CENTER_XY
  X:022CH         SYMBOL        WX
  D:0002H         SYMBOL        HY
  C:B448H         LINE#         4428
  C:B454H         LINE#         4429
  C:B454H         LINE#         4436
  C:B459H         LINE#         4437
  C:B462H         LINE#         4439
  C:B467H         LINE#         4440
  C:B46FH         LINE#         4442
  C:B474H         LINE#         4443
  C:B479H         LINE#         4445
  C:B47EH         LINE#         4446
  -------         ENDPROC       _CIRCLE_CENTER_XY
  -------         PROC          _ELLIPSE_CENTER_XY
  X:037CH         SYMBOL        WX
  D:0002H         SYMBOL        HY
  C:B84FH         LINE#         4449
  C:B85BH         LINE#         4450
  C:B85BH         LINE#         4457
  C:B860H         LINE#         4458
  C:B869H         LINE#         4460
  C:B86EH         LINE#         4461
  C:B876H         LINE#         4463
  C:B87BH         LINE#         4464
  C:B880H         LINE#         4466
  C:B885H         LINE#         4467
  -------         ENDPROC       _ELLIPSE_CENTER_XY
  -------         PROC          L?1071
  -------         ENDPROC       L?1071
  -------         PROC          _CIRCLE_RADIUS_R
  D:0002H         SYMBOL        WX
  C:BB09H         LINE#         4470
  C:BB0DH         LINE#         4471
  C:BB0DH         LINE#         4478
  C:BB12H         LINE#         4479
  C:BB17H         LINE#         4481
  C:BB1CH         LINE#         4482
  C:BB21H         LINE#         4484
  C:BB26H         LINE#         4485
  C:BB2BH         LINE#         4487
  C:BB30H         LINE#         4488
  -------         ENDPROC       _CIRCLE_RADIUS_R
  -------         PROC          _ELLIPSE_RADIUS_RXRY
  X:022CH         SYMBOL        WX
  D:0002H         SYMBOL        HY
BL51 BANKED LINKER/LOCATER V6.22                                                      07/02/2019  17:10:49  PAGE 96


  C:B88AH         LINE#         4492
  C:B896H         LINE#         4493
  C:B896H         LINE#         4500
  C:B89BH         LINE#         4501
  C:B8A4H         LINE#         4503
  C:B8A9H         LINE#         4504
  C:B8B1H         LINE#         4506
  C:B8B6H         LINE#         4507
  C:B8BBH         LINE#         4509
  C:B8C0H         LINE#         4510
  -------         ENDPROC       _ELLIPSE_RADIUS_RXRY
  -------         PROC          _CIRCLE_SQUARE_RADIUS_RXRY
  X:022CH         SYMBOL        WX
  D:0002H         SYMBOL        HY
  C:B8C5H         LINE#         4514
  C:B8D1H         LINE#         4515
  C:B8D1H         LINE#         4522
  C:B8D6H         LINE#         4523
  C:B8DFH         LINE#         4525
  C:B8E4H         LINE#         4526
  C:B8ECH         LINE#         4528
  C:B8F1H         LINE#         4529
  C:B8F6H         LINE#         4531
  C:B8FBH         LINE#         4532
  -------         ENDPROC       _CIRCLE_SQUARE_RADIUS_RXRY
  -------         PROC          _SET_PWM_PRESCALER_1_TO_256
  D:0002H         SYMBOL        WX
  C:C2F1H         LINE#         4536
  C:C2F5H         LINE#         4537
  C:C2F5H         LINE#         4543
  C:C2FAH         LINE#         4544
  C:C2FFH         LINE#         4545
  -------         ENDPROC       _SET_PWM_PRESCALER_1_TO_256
  -------         PROC          SELECT_PWM1_CLOCK_DIVIDED_BY_1
  -------         DO            
  D:0007H         SYMBOL        temp
  -------         ENDDO         
  C:C7FAH         LINE#         4548
  C:C7FAH         LINE#         4549
  C:C7FAH         LINE#         4556
  C:C7FFH         LINE#         4557
  C:C802H         LINE#         4558
  C:C805H         LINE#         4559
  C:C808H         LINE#         4560
  -------         ENDPROC       SELECT_PWM1_CLOCK_DIVIDED_BY_1
  -------         PROC          SELECT_PWM1_CLOCK_DIVIDED_BY_2
  -------         DO            
  D:0007H         SYMBOL        temp
  -------         ENDDO         
  C:C80BH         LINE#         4562
  C:C80BH         LINE#         4563
  C:C80BH         LINE#         4570
  C:C810H         LINE#         4571
  C:C813H         LINE#         4572
  C:C816H         LINE#         4573
  C:C819H         LINE#         4574
  -------         ENDPROC       SELECT_PWM1_CLOCK_DIVIDED_BY_2
BL51 BANKED LINKER/LOCATER V6.22                                                      07/02/2019  17:10:49  PAGE 97


  -------         PROC          SELECT_PWM1_CLOCK_DIVIDED_BY_4
  -------         DO            
  D:0007H         SYMBOL        temp
  -------         ENDDO         
  C:C81CH         LINE#         4576
  C:C81CH         LINE#         4577
  C:C81CH         LINE#         4584
  C:C821H         LINE#         4585
  C:C824H         LINE#         4586
  C:C827H         LINE#         4587
  C:C82AH         LINE#         4588
  -------         ENDPROC       SELECT_PWM1_CLOCK_DIVIDED_BY_4
  -------         PROC          SELECT_PWM1_CLOCK_DIVIDED_BY_8
  -------         DO            
  D:0007H         SYMBOL        temp
  -------         ENDDO         
  C:C82DH         LINE#         4590
  C:C82DH         LINE#         4591
  C:C82DH         LINE#         4598
  C:C832H         LINE#         4599
  C:C835H         LINE#         4600
  C:C838H         LINE#         4601
  C:C83BH         LINE#         4602
  -------         ENDPROC       SELECT_PWM1_CLOCK_DIVIDED_BY_8
  -------         PROC          SELECT_PWM0_CLOCK_DIVIDED_BY_1
  -------         DO            
  D:0007H         SYMBOL        temp
  -------         ENDDO         
  C:C83EH         LINE#         4604
  C:C83EH         LINE#         4605
  C:C83EH         LINE#         4612
  C:C843H         LINE#         4613
  C:C846H         LINE#         4614
  C:C849H         LINE#         4615
  C:C84CH         LINE#         4616
  -------         ENDPROC       SELECT_PWM0_CLOCK_DIVIDED_BY_1
  -------         PROC          SELECT_PWM0_CLOCK_DIVIDED_BY_2
  -------         DO            
  D:0007H         SYMBOL        temp
  -------         ENDDO         
  C:C84FH         LINE#         4618
  C:C84FH         LINE#         4619
  C:C84FH         LINE#         4626
  C:C854H         LINE#         4627
  C:C857H         LINE#         4628
  C:C85AH         LINE#         4629
  C:C85DH         LINE#         4630
  -------         ENDPROC       SELECT_PWM0_CLOCK_DIVIDED_BY_2
  -------         PROC          SELECT_PWM0_CLOCK_DIVIDED_BY_4
  -------         DO            
  D:0007H         SYMBOL        temp
  -------         ENDDO         
  C:C860H         LINE#         4632
  C:C860H         LINE#         4633
  C:C860H         LINE#         4640
  C:C865H         LINE#         4641
  C:C868H         LINE#         4642
BL51 BANKED LINKER/LOCATER V6.22                                                      07/02/2019  17:10:49  PAGE 98


  C:C86BH         LINE#         4643
  C:C86EH         LINE#         4644
  -------         ENDPROC       SELECT_PWM0_CLOCK_DIVIDED_BY_4
  -------         PROC          SELECT_PWM0_CLOCK_DIVIDED_BY_8
  -------         DO            
  D:0007H         SYMBOL        temp
  -------         ENDDO         
  C:C871H         LINE#         4646
  C:C871H         LINE#         4647
  C:C871H         LINE#         4654
  C:C876H         LINE#         4655
  C:C879H         LINE#         4656
  C:C87CH         LINE#         4657
  C:C87FH         LINE#         4658
  -------         ENDPROC       SELECT_PWM0_CLOCK_DIVIDED_BY_8
  -------         PROC          SELECT_PWM1_IS_ERRORFLAG
  -------         DO            
  D:0007H         SYMBOL        temp
  -------         ENDDO         
  C:CF45H         LINE#         4668
  C:CF45H         LINE#         4669
  C:CF45H         LINE#         4672
  C:CF4AH         LINE#         4673
  C:CF4DH         LINE#         4674
  C:CF51H         LINE#         4675
  -------         ENDPROC       SELECT_PWM1_IS_ERRORFLAG
  -------         PROC          SELECT_PWM1
  -------         DO            
  D:0007H         SYMBOL        temp
  -------         ENDDO         
  C:C882H         LINE#         4677
  C:C882H         LINE#         4678
  C:C882H         LINE#         4681
  C:C887H         LINE#         4682
  C:C88AH         LINE#         4683
  C:C88DH         LINE#         4684
  C:C890H         LINE#         4685
  -------         ENDPROC       SELECT_PWM1
  -------         PROC          SELECT_PWM1_IS_OSC_CLOCK
  -------         DO            
  D:0007H         SYMBOL        temp
  -------         ENDDO         
  C:C893H         LINE#         4687
  C:C893H         LINE#         4688
  C:C893H         LINE#         4691
  C:C898H         LINE#         4692
  C:C89BH         LINE#         4693
  C:C89EH         LINE#         4694
  C:C8A1H         LINE#         4695
  -------         ENDPROC       SELECT_PWM1_IS_OSC_CLOCK
  -------         PROC          SELECT_PWM0_IS_GPIO_C7
  -------         DO            
  D:0007H         SYMBOL        temp
  -------         ENDDO         
  C:CF54H         LINE#         4704
  C:CF54H         LINE#         4705
  C:CF54H         LINE#         4708
BL51 BANKED LINKER/LOCATER V6.22                                                      07/02/2019  17:10:49  PAGE 99


  C:CF59H         LINE#         4709
  C:CF5CH         LINE#         4710
  C:CF60H         LINE#         4711
  -------         ENDPROC       SELECT_PWM0_IS_GPIO_C7
  -------         PROC          SELECT_PWM0
  -------         DO            
  D:0004H         SYMBOL        temp
  -------         ENDDO         
  C:C0E9H         LINE#         4713
  C:C0E9H         LINE#         4714
  C:C0E9H         LINE#         4717
  C:C0EEH         LINE#         4718
  C:C0F3H         LINE#         4719
  C:C0F6H         LINE#         4720
  C:C0F9H         LINE#         4721
  C:C0FEH         LINE#         4722
  -------         ENDPROC       SELECT_PWM0
  -------         PROC          SELECT_PWM0_IS_CORE_CLOCK
  -------         DO            
  D:0004H         SYMBOL        temp
  -------         ENDDO         
  C:C103H         LINE#         4724
  C:C103H         LINE#         4725
  C:C103H         LINE#         4728
  C:C108H         LINE#         4729
  C:C10DH         LINE#         4730
  C:C110H         LINE#         4731
  C:C113H         LINE#         4732
  C:C118H         LINE#         4733
  -------         ENDPROC       SELECT_PWM0_IS_CORE_CLOCK
  -------         PROC          ENABLE_PWM1_INVERTER
  -------         DO            
  D:0007H         SYMBOL        temp
  -------         ENDDO         
  C:CF63H         LINE#         4737
  C:CF63H         LINE#         4738
  C:CF63H         LINE#         4746
  C:CF68H         LINE#         4747
  C:CF6BH         LINE#         4748
  C:CF6FH         LINE#         4749
  -------         ENDPROC       ENABLE_PWM1_INVERTER
  -------         PROC          DISABLE_PWM1_INVERTER
  -------         DO            
  D:0007H         SYMBOL        temp
  -------         ENDDO         
  C:CF72H         LINE#         4751
  C:CF72H         LINE#         4752
  C:CF72H         LINE#         4760
  C:CF77H         LINE#         4761
  C:CF7AH         LINE#         4762
  C:CF7EH         LINE#         4763
  -------         ENDPROC       DISABLE_PWM1_INVERTER
  -------         PROC          AUTO_RELOAD_PWM1
  -------         DO            
  D:0007H         SYMBOL        temp
  -------         ENDDO         
  C:CF81H         LINE#         4765
BL51 BANKED LINKER/LOCATER V6.22                                                      07/02/2019  17:10:49  PAGE 100


  C:CF81H         LINE#         4766
  C:CF81H         LINE#         4774
  C:CF86H         LINE#         4775
  C:CF89H         LINE#         4776
  C:CF8DH         LINE#         4777
  -------         ENDPROC       AUTO_RELOAD_PWM1
  -------         PROC          ONE_SHOT_PWM1
  -------         DO            
  D:0007H         SYMBOL        temp
  -------         ENDDO         
  C:CF90H         LINE#         4779
  C:CF90H         LINE#         4780
  C:CF90H         LINE#         4788
  C:CF95H         LINE#         4789
  C:CF98H         LINE#         4790
  C:CF9CH         LINE#         4791
  -------         ENDPROC       ONE_SHOT_PWM1
  -------         PROC          START_PWM1
  -------         DO            
  D:0007H         SYMBOL        temp
  -------         ENDDO         
  C:CF9FH         LINE#         4793
  C:CF9FH         LINE#         4794
  C:CF9FH         LINE#         4802
  C:CFA4H         LINE#         4803
  C:CFA7H         LINE#         4804
  C:CFABH         LINE#         4805
  -------         ENDPROC       START_PWM1
  -------         PROC          STOP_PWM1
  -------         DO            
  D:0007H         SYMBOL        temp
  -------         ENDDO         
  C:CFAEH         LINE#         4807
  C:CFAEH         LINE#         4808
  C:CFAEH         LINE#         4816
  C:CFB3H         LINE#         4817
  C:CFB6H         LINE#         4818
  C:CFBAH         LINE#         4819
  -------         ENDPROC       STOP_PWM1
  -------         PROC          ENABLE_PWM0_DEAD_ZONE
  -------         DO            
  D:0007H         SYMBOL        temp
  -------         ENDDO         
  C:CFBDH         LINE#         4822
  C:CFBDH         LINE#         4823
  C:CFBDH         LINE#         4829
  C:CFC2H         LINE#         4830
  C:CFC5H         LINE#         4831
  C:CFC9H         LINE#         4832
  -------         ENDPROC       ENABLE_PWM0_DEAD_ZONE
  -------         PROC          DISABLE_PWM0_DEAD_ZONE
  -------         DO            
  D:0007H         SYMBOL        temp
  -------         ENDDO         
  C:CFCCH         LINE#         4834
  C:CFCCH         LINE#         4835
  C:CFCCH         LINE#         4841
BL51 BANKED LINKER/LOCATER V6.22                                                      07/02/2019  17:10:49  PAGE 101


  C:CFD1H         LINE#         4842
  C:CFD4H         LINE#         4843
  C:CFD8H         LINE#         4844
  -------         ENDPROC       DISABLE_PWM0_DEAD_ZONE
  -------         PROC          ENABLE_PWM0_INVERTER
  -------         DO            
  D:0007H         SYMBOL        temp
  -------         ENDDO         
  C:CFDBH         LINE#         4846
  C:CFDBH         LINE#         4847
  C:CFDBH         LINE#         4855
  C:CFE0H         LINE#         4856
  C:CFE3H         LINE#         4857
  C:CFE7H         LINE#         4858
  -------         ENDPROC       ENABLE_PWM0_INVERTER
  -------         PROC          DISABLE_PWM0_INVERTER
  -------         DO            
  D:0007H         SYMBOL        temp
  -------         ENDDO         
  C:CFEAH         LINE#         4860
  C:CFEAH         LINE#         4861
  C:CFEAH         LINE#         4869
  C:CFEFH         LINE#         4870
  C:CFF2H         LINE#         4871
  C:CFF6H         LINE#         4872
  -------         ENDPROC       DISABLE_PWM0_INVERTER
  -------         PROC          AUTO_RELOAD_PWM0
  -------         DO            
  D:0007H         SYMBOL        temp
  -------         ENDDO         
  C:CFF9H         LINE#         4874
  C:CFF9H         LINE#         4875
  C:CFF9H         LINE#         4883
  C:CFFEH         LINE#         4884
  C:D001H         LINE#         4885
  C:D005H         LINE#         4886
  -------         ENDPROC       AUTO_RELOAD_PWM0
  -------         PROC          ONE_SHOT_PWM0
  -------         DO            
  D:0007H         SYMBOL        temp
  -------         ENDDO         
  C:D008H         LINE#         4888
  C:D008H         LINE#         4889
  C:D008H         LINE#         4897
  C:D00DH         LINE#         4898
  C:D010H         LINE#         4899
  C:D014H         LINE#         4900
  -------         ENDPROC       ONE_SHOT_PWM0
  -------         PROC          START_PWM0
  -------         DO            
  D:0007H         SYMBOL        temp
  -------         ENDDO         
  C:D017H         LINE#         4902
  C:D017H         LINE#         4903
  C:D017H         LINE#         4911
  C:D01CH         LINE#         4912
  C:D01FH         LINE#         4913
BL51 BANKED LINKER/LOCATER V6.22                                                      07/02/2019  17:10:49  PAGE 102


  C:D023H         LINE#         4914
  -------         ENDPROC       START_PWM0
  -------         PROC          STOP_PWM0
  -------         DO            
  D:0007H         SYMBOL        temp
  -------         ENDDO         
  C:D026H         LINE#         4916
  C:D026H         LINE#         4917
  C:D026H         LINE#         4925
  C:D02BH         LINE#         4926
  C:D02EH         LINE#         4927
  C:D032H         LINE#         4928
  -------         ENDPROC       STOP_PWM0
  -------         PROC          _SET_TIMER0_DEAD_ZONE_LENGTH
  D:0004H         SYMBOL        temp
  C:D396H         LINE#         4931
  C:D398H         LINE#         4932
  C:D398H         LINE#         4938
  C:D39DH         LINE#         4939
  -------         ENDPROC       _SET_TIMER0_DEAD_ZONE_LENGTH
  -------         PROC          _SET_TIMER0_COMPARE_BUFFER
  D:0002H         SYMBOL        WX
  C:C182H         LINE#         4942
  C:C186H         LINE#         4943
  C:C186H         LINE#         4950
  C:C18BH         LINE#         4951
  C:C190H         LINE#         4952
  C:C195H         LINE#         4953
  -------         ENDPROC       _SET_TIMER0_COMPARE_BUFFER
  -------         PROC          _SET_TIMER0_COUNT_BUFFER
  D:0002H         SYMBOL        WX
  C:C19AH         LINE#         4956
  C:C19EH         LINE#         4957
  C:C19EH         LINE#         4964
  C:C1A3H         LINE#         4965
  C:C1A8H         LINE#         4966
  C:C1ADH         LINE#         4967
  -------         ENDPROC       _SET_TIMER0_COUNT_BUFFER
  -------         PROC          _SET_TIMER1_COMPARE_BUFFER
  D:0002H         SYMBOL        WX
  C:C1B2H         LINE#         4970
  C:C1B6H         LINE#         4971
  C:C1B6H         LINE#         4978
  C:C1BBH         LINE#         4979
  C:C1C0H         LINE#         4980
  C:C1C5H         LINE#         4981
  -------         ENDPROC       _SET_TIMER1_COMPARE_BUFFER
  -------         PROC          _SET_TIMER1_COUNT_BUFFER
  D:0002H         SYMBOL        WX
  C:C1CAH         LINE#         4984
  C:C1CEH         LINE#         4985
  C:C1CEH         LINE#         4992
  C:C1D3H         LINE#         4993
  C:C1D8H         LINE#         4994
  C:C1DDH         LINE#         4995
  -------         ENDPROC       _SET_TIMER1_COUNT_BUFFER
  -------         PROC          BTE_ENABLE
BL51 BANKED LINKER/LOCATER V6.22                                                      07/02/2019  17:10:49  PAGE 103


  -------         DO            
  D:0007H         SYMBOL        temp
  -------         ENDDO         
  C:D035H         LINE#         5002
  C:D035H         LINE#         5003
  C:D035H         LINE#         5010
  C:D03AH         LINE#         5011
  C:D03DH         LINE#         5012
  C:D041H         LINE#         5013
  -------         ENDPROC       BTE_ENABLE
  -------         PROC          BTE_DISABLE
  -------         DO            
  D:0007H         SYMBOL        temp
  -------         ENDDO         
  C:D044H         LINE#         5017
  C:D044H         LINE#         5018
  C:D044H         LINE#         5025
  C:D049H         LINE#         5026
  C:D04CH         LINE#         5027
  C:D050H         LINE#         5028
  -------         ENDPROC       BTE_DISABLE
  -------         PROC          CHECK_BTE_BUSY
  -------         DO            
  D:0007H         SYMBOL        temp
  -------         ENDDO         
  C:D5B2H         LINE#         5032
  C:D5B2H         LINE#         5033
  C:D5B2H         LINE#         5041
  C:D5B2H         LINE#         5042
  C:D5B5H         LINE#         5043
  C:D5B9H         LINE#         5045
  -------         ENDPROC       CHECK_BTE_BUSY
  -------         PROC          PATTERN_FORMAT_8X8
  -------         DO            
  D:0007H         SYMBOL        temp
  -------         ENDDO         
  C:D053H         LINE#         5047
  C:D053H         LINE#         5048
  C:D053H         LINE#         5055
  C:D058H         LINE#         5056
  C:D05BH         LINE#         5057
  C:D05FH         LINE#         5058
  -------         ENDPROC       PATTERN_FORMAT_8X8
  -------         PROC          PATTERN_FORMAT_16X16
  -------         DO            
  D:0007H         SYMBOL        temp
  -------         ENDDO         
  C:D062H         LINE#         5061
  C:D062H         LINE#         5062
  C:D062H         LINE#         5069
  C:D067H         LINE#         5070
  C:D06AH         LINE#         5071
  C:D06EH         LINE#         5072
  -------         ENDPROC       PATTERN_FORMAT_16X16
  C:BD19H         SYMBOL        L?1021
  C:BD23H         SYMBOL        L?1022
  C:BD29H         SYMBOL        L?1023
BL51 BANKED LINKER/LOCATER V6.22                                                      07/02/2019  17:10:49  PAGE 104


  -------         PROC          L?1020
  -------         ENDPROC       L?1020
  C:BD19H         SYMBOL        L?1021
  C:BD23H         SYMBOL        L?1022
  C:BD29H         SYMBOL        L?1023
  -------         PROC          _BTE_ROP_CODE
  D:0004H         SYMBOL        setx
  -------         DO            
  D:0007H         SYMBOL        temp
  -------         ENDDO         
  C:BD2EH         LINE#         5076
  C:BD30H         LINE#         5077
  C:BD30H         LINE#         5099
  C:BD35H         LINE#         5100
  C:BD38H         LINE#         5101
  C:BD3CH         LINE#         5102
  C:BD44H         LINE#         5103
  -------         ENDPROC       _BTE_ROP_CODE
  -------         PROC          _BTE_OPERATION_CODE
  D:0004H         SYMBOL        setx
  -------         DO            
  D:0007H         SYMBOL        temp
  -------         ENDDO         
  C:C469H         LINE#         5107
  C:C46BH         LINE#         5108
  C:C46BH         LINE#         5130
  C:C470H         LINE#         5131
  C:C473H         LINE#         5132
  C:C476H         LINE#         5133
  C:C478H         LINE#         5134
  -------         ENDPROC       _BTE_OPERATION_CODE
  -------         PROC          BTE_S0_COLOR_8BPP
  -------         DO            
  D:0007H         SYMBOL        temp
  -------         ENDDO         
  C:C8A4H         LINE#         5138
  C:C8A4H         LINE#         5139
  C:C8A4H         LINE#         5147
  C:C8A9H         LINE#         5148
  C:C8ACH         LINE#         5149
  C:C8AFH         LINE#         5150
  C:C8B2H         LINE#         5151
  -------         ENDPROC       BTE_S0_COLOR_8BPP
  -------         PROC          BTE_S0_COLOR_16BPP
  -------         DO            
  D:0007H         SYMBOL        temp
  -------         ENDDO         
  C:C8B5H         LINE#         5154
  C:C8B5H         LINE#         5155
  C:C8B5H         LINE#         5163
  C:C8BAH         LINE#         5164
  C:C8BDH         LINE#         5165
  C:C8C0H         LINE#         5166
  C:C8C3H         LINE#         5167
  -------         ENDPROC       BTE_S0_COLOR_16BPP
  -------         PROC          BTE_S0_COLOR_24BPP
  -------         DO            
BL51 BANKED LINKER/LOCATER V6.22                                                      07/02/2019  17:10:49  PAGE 105


  D:0007H         SYMBOL        temp
  -------         ENDDO         
  C:D071H         LINE#         5171
  C:D071H         LINE#         5172
  C:D071H         LINE#         5180
  C:D076H         LINE#         5181
  C:D079H         LINE#         5182
  C:D07DH         LINE#         5184
  -------         ENDPROC       BTE_S0_COLOR_24BPP
  -------         PROC          BTE_S1_COLOR_8BPP
  -------         DO            
  D:0007H         SYMBOL        temp
  -------         ENDDO         
  C:C304H         LINE#         5187
  C:C304H         LINE#         5188
  C:C304H         LINE#         5199
  C:C309H         LINE#         5200
  C:C30CH         LINE#         5201
  C:C30FH         LINE#         5202
  C:C311H         LINE#         5203
  C:C314H         LINE#         5204
  -------         ENDPROC       BTE_S1_COLOR_8BPP
  -------         PROC          BTE_S1_COLOR_16BPP
  -------         DO            
  D:0007H         SYMBOL        temp
  -------         ENDDO         
  C:C317H         LINE#         5207
  C:C317H         LINE#         5208
  C:C317H         LINE#         5219
  C:C31CH         LINE#         5220
  C:C31FH         LINE#         5221
  C:C322H         LINE#         5222
  C:C324H         LINE#         5223
  C:C327H         LINE#         5224
  -------         ENDPROC       BTE_S1_COLOR_16BPP
  -------         PROC          BTE_S1_COLOR_24BPP
  -------         DO            
  D:0007H         SYMBOL        temp
  -------         ENDDO         
  C:C32AH         LINE#         5228
  C:C32AH         LINE#         5229
  C:C32AH         LINE#         5240
  C:C32FH         LINE#         5241
  C:C332H         LINE#         5242
  C:C335H         LINE#         5243
  C:C337H         LINE#         5244
  C:C33AH         LINE#         5245
  -------         ENDPROC       BTE_S1_COLOR_24BPP
  -------         PROC          BTE_S1_COLOR_CONSTANT
  -------         DO            
  D:0007H         SYMBOL        temp
  -------         ENDDO         
  C:C33DH         LINE#         5249
  C:C33DH         LINE#         5250
  C:C33DH         LINE#         5261
  C:C342H         LINE#         5262
  C:C345H         LINE#         5263
BL51 BANKED LINKER/LOCATER V6.22                                                      07/02/2019  17:10:49  PAGE 106


  C:C348H         LINE#         5264
  C:C34AH         LINE#         5265
  C:C34DH         LINE#         5266
  -------         ENDPROC       BTE_S1_COLOR_CONSTANT
  -------         PROC          BTE_S1_COLOR_8BIT_ALPHA
  -------         DO            
  D:0007H         SYMBOL        temp
  -------         ENDDO         
  C:C350H         LINE#         5272
  C:C350H         LINE#         5273
  C:C350H         LINE#         5284
  C:C355H         LINE#         5285
  C:C358H         LINE#         5286
  C:C35BH         LINE#         5287
  C:C35DH         LINE#         5288
  C:C360H         LINE#         5289
  -------         ENDPROC       BTE_S1_COLOR_8BIT_ALPHA
  -------         PROC          BTE_S1_COLOR_16BIT_ALPHA
  -------         DO            
  D:0007H         SYMBOL        temp
  -------         ENDDO         
  C:C363H         LINE#         5293
  C:C363H         LINE#         5294
  C:C363H         LINE#         5305
  C:C368H         LINE#         5306
  C:C36BH         LINE#         5307
  C:C36EH         LINE#         5308
  C:C370H         LINE#         5309
  C:C373H         LINE#         5310
  -------         ENDPROC       BTE_S1_COLOR_16BIT_ALPHA
  -------         PROC          BTE_DESTINATION_COLOR_8BPP
  -------         DO            
  D:0007H         SYMBOL        temp
  -------         ENDDO         
  C:C8C6H         LINE#         5314
  C:C8C6H         LINE#         5315
  C:C8C6H         LINE#         5323
  C:C8CBH         LINE#         5324
  C:C8CEH         LINE#         5325
  C:C8D1H         LINE#         5326
  C:C8D4H         LINE#         5327
  -------         ENDPROC       BTE_DESTINATION_COLOR_8BPP
  -------         PROC          L?1073
  -------         ENDPROC       L?1073
  -------         PROC          BTE_DESTINATION_COLOR_16BPP
  -------         DO            
  D:0007H         SYMBOL        temp
  -------         ENDDO         
  C:C1E9H         LINE#         5330
  C:C1E9H         LINE#         5331
  C:C1E9H         LINE#         5339
  C:C1EEH         LINE#         5340
  C:C1F1H         LINE#         5341
  C:C1F4H         LINE#         5342
  C:C1F7H         LINE#         5343
  -------         ENDPROC       BTE_DESTINATION_COLOR_16BPP
  -------         PROC          BTE_DESTINATION_COLOR_24BPP
BL51 BANKED LINKER/LOCATER V6.22                                                      07/02/2019  17:10:49  PAGE 107


  -------         DO            
  D:0007H         SYMBOL        temp
  -------         ENDDO         
  C:D080H         LINE#         5347
  C:D080H         LINE#         5348
  C:D080H         LINE#         5356
  C:D085H         LINE#         5357
  C:D088H         LINE#         5358
  C:D08CH         LINE#         5360
  -------         ENDPROC       BTE_DESTINATION_COLOR_24BPP
  -------         PROC          _BTE_S0_MEMORY_START_ADDRESS
  X:023CH         SYMBOL        Addr
  C:B0A1H         LINE#         5365
  C:B0A7H         LINE#         5366
  C:B0A7H         LINE#         5374
  C:B0B4H         LINE#         5375
  C:B0CEH         LINE#         5376
  C:B0E8H         LINE#         5377
  -------         ENDPROC       _BTE_S0_MEMORY_START_ADDRESS
  -------         PROC          _BTE_S0_IMAGE_WIDTH
  D:0002H         SYMBOL        WX
  C:C47BH         LINE#         5382
  C:C47FH         LINE#         5383
  C:C47FH         LINE#         5390
  C:C486H         LINE#         5391
  -------         ENDPROC       _BTE_S0_IMAGE_WIDTH
  C:B6A9H         SYMBOL        L?1004
  C:B6ADH         SYMBOL        L?1005
  C:B6B1H         SYMBOL        L?1006
  -------         PROC          L?1003
  -------         ENDPROC       L?1003
  C:B6A9H         SYMBOL        L?1004
  C:B6ADH         SYMBOL        L?1005
  C:B6B1H         SYMBOL        L?1006
  -------         PROC          _BTE_S0_WINDOW_START_XY
  X:023AH         SYMBOL        WX
  D:0002H         SYMBOL        HY
  C:B6C0H         LINE#         5396
  C:B6CCH         LINE#         5397
  C:B6CCH         LINE#         5404
  C:B6D2H         LINE#         5405
  C:B6DCH         LINE#         5407
  C:B6E3H         LINE#         5408
  -------         ENDPROC       _BTE_S0_WINDOW_START_XY
  -------         PROC          _BTE_S1_MEMORY_START_ADDRESS
  X:0232H         SYMBOL        Addr
  C:B102H         LINE#         5415
  C:B108H         LINE#         5416
  C:B108H         LINE#         5424
  C:B115H         LINE#         5425
  C:B12FH         LINE#         5426
  C:B149H         LINE#         5427
  -------         ENDPROC       _BTE_S1_MEMORY_START_ADDRESS
  -------         PROC          _S1_CONSTANT_COLOR_256
  D:0004H         SYMBOL        temp
  C:BD74H         LINE#         5432
  C:BD76H         LINE#         5433
BL51 BANKED LINKER/LOCATER V6.22                                                      07/02/2019  17:10:49  PAGE 108


  C:BD76H         LINE#         5434
  C:BD7BH         LINE#         5435
  C:BD80H         LINE#         5437
  C:BD85H         LINE#         5438
  C:BD8FH         LINE#         5440
  C:BD94H         LINE#         5441
  -------         ENDPROC       _S1_CONSTANT_COLOR_256
  -------         PROC          _S1_CONSTANT_COLOR_65K
  D:0002H         SYMBOL        temp
  C:BA93H         LINE#         5445
  C:BA97H         LINE#         5446
  C:BA97H         LINE#         5447
  C:BA9CH         LINE#         5448
  C:BAA1H         LINE#         5450
  C:BAA6H         LINE#         5451
  C:BAB6H         LINE#         5453
  C:BABBH         LINE#         5454
  -------         ENDPROC       _S1_CONSTANT_COLOR_65K
  -------         PROC          _S1_CONSTANT_COLOR_16M
  X:035AH         SYMBOL        temp
  C:BE22H         LINE#         5458
  C:BE28H         LINE#         5459
  C:BE28H         LINE#         5460
  C:BE2DH         LINE#         5461
  C:BE32H         LINE#         5463
  C:BE37H         LINE#         5464
  C:BE3CH         LINE#         5466
  C:BE41H         LINE#         5467
  -------         ENDPROC       _S1_CONSTANT_COLOR_16M
  C:BF50H         SYMBOL        L?1033
  C:BF54H         SYMBOL        L?1034
  -------         PROC          L?1032
  -------         ENDPROC       L?1032
  C:BF50H         SYMBOL        L?1033
  C:BF54H         SYMBOL        L?1034
  -------         PROC          _BTE_S1_IMAGE_WIDTH
  D:0002H         SYMBOL        WX
  C:BF5FH         LINE#         5474
  C:BF63H         LINE#         5475
  C:BF63H         LINE#         5482
  C:BF6AH         LINE#         5483
  -------         ENDPROC       _BTE_S1_IMAGE_WIDTH
  C:BCEAH         SYMBOL        L?1066
  -------         PROC          L?1065
  -------         ENDPROC       L?1065
  C:BCEAH         SYMBOL        L?1066
  -------         PROC          _BTE_S1_WINDOW_START_XY
  X:023AH         SYMBOL        WX
  D:0002H         SYMBOL        HY
  C:BCEFH         LINE#         5488
  C:BCFBH         LINE#         5489
  C:BCFBH         LINE#         5496
  C:BD01H         LINE#         5497
  C:BD0BH         LINE#         5499
  C:BD12H         LINE#         5500
  -------         ENDPROC       _BTE_S1_WINDOW_START_XY
  -------         PROC          _BTE_DESTINATION_MEMORY_START_ADDRESS
BL51 BANKED LINKER/LOCATER V6.22                                                      07/02/2019  17:10:49  PAGE 109


  X:023AH         SYMBOL        Addr
  C:B163H         LINE#         5507
  C:B169H         LINE#         5508
  C:B169H         LINE#         5516
  C:B176H         LINE#         5517
  C:B190H         LINE#         5518
  C:B1AAH         LINE#         5519
  -------         ENDPROC       _BTE_DESTINATION_MEMORY_START_ADDRESS
  C:B900H         SYMBOL        L?0976
  C:B91AH         SYMBOL        L?0977
  C:B91EH         SYMBOL        L?0978
  C:B920H         SYMBOL        L?0979
  -------         PROC          L?0975
  -------         ENDPROC       L?0975
  C:B900H         SYMBOL        L?0976
  C:B91AH         SYMBOL        L?0977
  C:B91EH         SYMBOL        L?0978
  C:B920H         SYMBOL        L?0979
  -------         PROC          _BTE_DESTINATION_IMAGE_WIDTH
  D:0002H         SYMBOL        WX
  C:B929H         LINE#         5524
  C:B92DH         LINE#         5525
  C:B92DH         LINE#         5532
  C:B934H         LINE#         5533
  -------         ENDPROC       _BTE_DESTINATION_IMAGE_WIDTH
  -------         PROC          L?1052
  -------         ENDPROC       L?1052
  -------         PROC          _BTE_DESTINATION_WINDOW_START_XY
  X:023AH         SYMBOL        WX
  D:0002H         SYMBOL        HY
  C:BC62H         LINE#         5538
  C:BC6EH         LINE#         5539
  C:BC6EH         LINE#         5546
  C:BC74H         LINE#         5547
  C:BC7EH         LINE#         5549
  C:BC85H         LINE#         5550
  -------         ENDPROC       _BTE_DESTINATION_WINDOW_START_XY
  C:BB6CH         SYMBOL        L?1063
  -------         PROC          L?1062
  -------         ENDPROC       L?1062
  C:BB6CH         SYMBOL        L?1063
  -------         PROC          _BTE_WINDOW_SIZE
  X:023AH         SYMBOL        WX
  D:0002H         SYMBOL        WY
  C:BB70H         LINE#         5556
  C:BB7CH         LINE#         5558
  C:BB7CH         LINE#         5566
  C:BB82H         LINE#         5567
  C:BB8CH         LINE#         5569
  C:BB93H         LINE#         5570
  -------         ENDPROC       _BTE_WINDOW_SIZE
  -------         PROC          _BTE_ALPHA_BLENDING_EFFECT
  D:0004H         SYMBOL        temp
  C:D3A2H         LINE#         5574
  C:D3A4H         LINE#         5575
  C:D3A4H         LINE#         5590
  C:D3A9H         LINE#         5591
BL51 BANKED LINKER/LOCATER V6.22                                                      07/02/2019  17:10:49  PAGE 110


  -------         ENDPROC       _BTE_ALPHA_BLENDING_EFFECT
  C:BE79H         SYMBOL        L?0981
  C:BE7CH         SYMBOL        L?0982
  C:BE87H         SYMBOL        L?0983
  -------         PROC          L?0980
  -------         ENDPROC       L?0980
  C:BE79H         SYMBOL        L?0981
  C:BE7CH         SYMBOL        L?0982
  C:BE87H         SYMBOL        L?0983
  -------         PROC          START_SFI_DMA
  -------         DO            
  D:0007H         SYMBOL        temp
  -------         ENDDO         
  C:BE8DH         LINE#         5596
  C:BE8DH         LINE#         5597
  C:BE8DH         LINE#         5599
  C:BE92H         LINE#         5600
  C:BE95H         LINE#         5601
  C:BE99H         LINE#         5602
  -------         ENDPROC       START_SFI_DMA
  -------         PROC          CHECK_BUSY_SFI_DMA
  C:D340H         LINE#         5605
  C:D340H         LINE#         5606
  C:D340H         LINE#         5607
  C:D345H         LINE#         5609
  C:D345H         LINE#         5610
  C:D34CH         LINE#         5611
  -------         ENDPROC       CHECK_BUSY_SFI_DMA
  -------         PROC          SELECT_SFI_0
  -------         DO            
  D:0007H         SYMBOL        temp
  -------         ENDDO         
  C:D08FH         LINE#         5615
  C:D08FH         LINE#         5616
  C:D08FH         LINE#         5623
  C:D094H         LINE#         5624
  C:D097H         LINE#         5625
  C:D09BH         LINE#         5626
  -------         ENDPROC       SELECT_SFI_0
  -------         PROC          SELECT_SFI_1
  -------         DO            
  D:0007H         SYMBOL        temp
  -------         ENDDO         
  C:D09EH         LINE#         5628
  C:D09EH         LINE#         5629
  C:D09EH         LINE#         5636
  C:D0A3H         LINE#         5637
  C:D0A6H         LINE#         5638
  C:D0AAH         LINE#         5639
  -------         ENDPROC       SELECT_SFI_1
  -------         PROC          SELECT_SFI_FONT_MODE
  -------         DO            
  D:0007H         SYMBOL        temp
  -------         ENDDO         
  C:D0ADH         LINE#         5641
  C:D0ADH         LINE#         5642
  C:D0ADH         LINE#         5649
BL51 BANKED LINKER/LOCATER V6.22                                                      07/02/2019  17:10:49  PAGE 111


  C:D0B2H         LINE#         5650
  C:D0B5H         LINE#         5651
  C:D0B9H         LINE#         5652
  -------         ENDPROC       SELECT_SFI_FONT_MODE
  -------         PROC          SELECT_SFI_DMA_MODE
  -------         DO            
  D:0007H         SYMBOL        temp
  -------         ENDDO         
  C:D0BCH         LINE#         5654
  C:D0BCH         LINE#         5655
  C:D0BCH         LINE#         5662
  C:D0C1H         LINE#         5663
  C:D0C4H         LINE#         5664
  C:D0C8H         LINE#         5665
  -------         ENDPROC       SELECT_SFI_DMA_MODE
  -------         PROC          SELECT_SFI_24BIT_ADDRESS
  -------         DO            
  D:0007H         SYMBOL        temp
  -------         ENDDO         
  C:D0CBH         LINE#         5667
  C:D0CBH         LINE#         5668
  C:D0CBH         LINE#         5675
  C:D0D0H         LINE#         5676
  C:D0D3H         LINE#         5677
  C:D0D7H         LINE#         5678
  -------         ENDPROC       SELECT_SFI_24BIT_ADDRESS
  -------         PROC          SELECT_SFI_32BIT_ADDRESS
  -------         DO            
  D:0007H         SYMBOL        temp
  -------         ENDDO         
  C:D0DAH         LINE#         5680
  C:D0DAH         LINE#         5681
  C:D0DAH         LINE#         5688
  C:D0DFH         LINE#         5689
  C:D0E2H         LINE#         5690
  C:D0E6H         LINE#         5691
  -------         ENDPROC       SELECT_SFI_32BIT_ADDRESS
  -------         PROC          SELECT_SFI_WAVEFORM_MODE_0
  -------         DO            
  D:0007H         SYMBOL        temp
  -------         ENDDO         
  C:D0E9H         LINE#         5693
  C:D0E9H         LINE#         5694
  C:D0E9H         LINE#         5701
  C:D0EEH         LINE#         5702
  C:D0F1H         LINE#         5703
  C:D0F5H         LINE#         5704
  -------         ENDPROC       SELECT_SFI_WAVEFORM_MODE_0
  -------         PROC          SELECT_SFI_WAVEFORM_MODE_3
  -------         DO            
  D:0007H         SYMBOL        temp
  -------         ENDDO         
  C:D0F8H         LINE#         5706
  C:D0F8H         LINE#         5707
  C:D0F8H         LINE#         5714
  C:D0FDH         LINE#         5715
  C:D100H         LINE#         5716
BL51 BANKED LINKER/LOCATER V6.22                                                      07/02/2019  17:10:49  PAGE 112


  C:D104H         LINE#         5717
  -------         ENDPROC       SELECT_SFI_WAVEFORM_MODE_3
  -------         PROC          SELECT_SFI_0_DUMMYREAD
  -------         DO            
  D:0007H         SYMBOL        temp
  -------         ENDDO         
  C:D107H         LINE#         5719
  C:D107H         LINE#         5720
  C:D107H         LINE#         5729
  C:D10CH         LINE#         5730
  C:D10FH         LINE#         5731
  C:D113H         LINE#         5732
  -------         ENDPROC       SELECT_SFI_0_DUMMYREAD
  -------         PROC          SELECT_SFI_8_DUMMYREAD
  -------         DO            
  D:0007H         SYMBOL        temp
  -------         ENDDO         
  C:C8D7H         LINE#         5734
  C:C8D7H         LINE#         5735
  C:C8D7H         LINE#         5737
  C:C8DCH         LINE#         5738
  C:C8DFH         LINE#         5739
  C:C8E2H         LINE#         5740
  C:C8E5H         LINE#         5741
  -------         ENDPROC       SELECT_SFI_8_DUMMYREAD
  -------         PROC          SELECT_SFI_16_DUMMYREAD
  -------         DO            
  D:0007H         SYMBOL        temp
  -------         ENDDO         
  C:C8E8H         LINE#         5743
  C:C8E8H         LINE#         5744
  C:C8E8H         LINE#         5747
  C:C8EDH         LINE#         5748
  C:C8F0H         LINE#         5749
  C:C8F3H         LINE#         5750
  C:C8F6H         LINE#         5751
  -------         ENDPROC       SELECT_SFI_16_DUMMYREAD
  -------         PROC          SELECT_SFI_24_DUMMYREAD
  -------         DO            
  D:0007H         SYMBOL        temp
  -------         ENDDO         
  C:D116H         LINE#         5753
  C:D116H         LINE#         5754
  C:D116H         LINE#         5756
  C:D11BH         LINE#         5757
  C:D11EH         LINE#         5758
  C:D122H         LINE#         5759
  -------         ENDPROC       SELECT_SFI_24_DUMMYREAD
  -------         PROC          SELECT_SFI_SINGLE_MODE
  -------         DO            
  D:0007H         SYMBOL        temp
  -------         ENDDO         
  C:D125H         LINE#         5761
  C:D125H         LINE#         5762
  C:D125H         LINE#         5770
  C:D12AH         LINE#         5771
  C:D12DH         LINE#         5772
BL51 BANKED LINKER/LOCATER V6.22                                                      07/02/2019  17:10:49  PAGE 113


  C:D131H         LINE#         5773
  -------         ENDPROC       SELECT_SFI_SINGLE_MODE
  -------         PROC          SELECT_SFI_DUAL_MODE0
  -------         DO            
  D:0007H         SYMBOL        temp
  -------         ENDDO         
  C:C8F9H         LINE#         5775
  C:C8F9H         LINE#         5776
  C:C8F9H         LINE#         5778
  C:C8FEH         LINE#         5779
  C:C901H         LINE#         5780
  C:C904H         LINE#         5781
  C:C907H         LINE#         5782
  -------         ENDPROC       SELECT_SFI_DUAL_MODE0
  -------         PROC          SELECT_SFI_DUAL_MODE1
  -------         DO            
  D:0007H         SYMBOL        temp
  -------         ENDDO         
  C:D134H         LINE#         5784
  C:D134H         LINE#         5785
  C:D134H         LINE#         5787
  C:D139H         LINE#         5788
  C:D13CH         LINE#         5789
  C:D140H         LINE#         5790
  -------         ENDPROC       SELECT_SFI_DUAL_MODE1
  -------         PROC          _SPI_MASTER_FIFO_DATA_PUT
  D:0004H         SYMBOL        Data
  -------         DO            
  D:0007H         SYMBOL        temp
  -------         ENDDO         
  C:C29CH         LINE#         5794
  C:C29EH         LINE#         5795
  C:C29EH         LINE#         5797
  C:C2A3H         LINE#         5798
  C:C2A8H         LINE#         5799
  C:C2AEH         LINE#         5800
  C:C2B1H         LINE#         5801
  C:C2B1H         LINE#         5802
  -------         ENDPROC       _SPI_MASTER_FIFO_DATA_PUT
  -------         PROC          SPI_MASTER_FIFO_DATA_GET
  -------         DO            
  D:0007H         SYMBOL        temp
  -------         ENDDO         
  C:C90AH         LINE#         5804
  C:C90AH         LINE#         5805
  C:C90AH         LINE#         5808
  C:C912H         LINE#         5809
  C:C917H         LINE#         5810
  C:C91AH         LINE#         5812
  C:C91AH         LINE#         5813
  -------         ENDPROC       SPI_MASTER_FIFO_DATA_GET
  -------         PROC          MASK_SPI_MASTER_INTERRUPT_FLAG
  -------         DO            
  D:0007H         SYMBOL        temp
  -------         ENDDO         
  C:D143H         LINE#         5816
  C:D143H         LINE#         5817
BL51 BANKED LINKER/LOCATER V6.22                                                      07/02/2019  17:10:49  PAGE 114


  C:D143H         LINE#         5819
  C:D148H         LINE#         5820
  C:D14BH         LINE#         5821
  C:D14FH         LINE#         5822
  -------         ENDPROC       MASK_SPI_MASTER_INTERRUPT_FLAG
  -------         PROC          SELECT_NSS_DRIVE_ON_XNSFCS0
  -------         DO            
  D:0007H         SYMBOL        temp
  -------         ENDDO         
  C:D152H         LINE#         5826
  C:D152H         LINE#         5827
  C:D152H         LINE#         5829
  C:D157H         LINE#         5830
  C:D15AH         LINE#         5831
  C:D15EH         LINE#         5832
  -------         ENDPROC       SELECT_NSS_DRIVE_ON_XNSFCS0
  -------         PROC          SELECT_NSS_DRIVE_ON_XNSFCS1
  -------         DO            
  D:0007H         SYMBOL        temp
  -------         ENDDO         
  C:D161H         LINE#         5836
  C:D161H         LINE#         5837
  C:D161H         LINE#         5839
  C:D166H         LINE#         5840
  C:D169H         LINE#         5841
  C:D16DH         LINE#         5842
  -------         ENDPROC       SELECT_NSS_DRIVE_ON_XNSFCS1
  -------         PROC          NSS_INACTIVE
  -------         DO            
  D:0007H         SYMBOL        temp
  -------         ENDDO         
  C:D170H         LINE#         5847
  C:D170H         LINE#         5848
  C:D170H         LINE#         5850
  C:D175H         LINE#         5851
  C:D178H         LINE#         5852
  C:D17CH         LINE#         5853
  -------         ENDPROC       NSS_INACTIVE
  -------         PROC          NSS_ACTIVE
  -------         DO            
  D:0007H         SYMBOL        temp
  -------         ENDDO         
  C:D17FH         LINE#         5856
  C:D17FH         LINE#         5857
  C:D17FH         LINE#         5859
  C:D184H         LINE#         5860
  C:D187H         LINE#         5861
  C:D18BH         LINE#         5862
  -------         ENDPROC       NSS_ACTIVE
  -------         PROC          OVFIRQEN_ENABLE
  -------         DO            
  D:0007H         SYMBOL        temp
  -------         ENDDO         
  C:D18EH         LINE#         5866
  C:D18EH         LINE#         5867
  C:D18EH         LINE#         5869
  C:D193H         LINE#         5870
BL51 BANKED LINKER/LOCATER V6.22                                                      07/02/2019  17:10:49  PAGE 115


  C:D196H         LINE#         5871
  C:D19AH         LINE#         5872
  -------         ENDPROC       OVFIRQEN_ENABLE
  -------         PROC          EMTIRQEN_ENABLE
  -------         DO            
  D:0007H         SYMBOL        temp
  -------         ENDDO         
  C:D19DH         LINE#         5876
  C:D19DH         LINE#         5877
  C:D19DH         LINE#         5879
  C:D1A2H         LINE#         5880
  C:D1A5H         LINE#         5881
  C:D1A9H         LINE#         5882
  -------         ENDPROC       EMTIRQEN_ENABLE
  -------         PROC          RESET_CPOL
  -------         DO            
  D:0007H         SYMBOL        temp
  -------         ENDDO         
  C:D1ACH         LINE#         5898
  C:D1ACH         LINE#         5899
  C:D1ACH         LINE#         5901
  C:D1B1H         LINE#         5902
  C:D1B4H         LINE#         5903
  C:D1B8H         LINE#         5904
  -------         ENDPROC       RESET_CPOL
  -------         PROC          SET_CPOL
  -------         DO            
  D:0007H         SYMBOL        temp
  -------         ENDDO         
  C:D1BBH         LINE#         5907
  C:D1BBH         LINE#         5908
  C:D1BBH         LINE#         5910
  C:D1C0H         LINE#         5911
  C:D1C3H         LINE#         5912
  C:D1C7H         LINE#         5913
  -------         ENDPROC       SET_CPOL
  -------         PROC          RESET_CPHA
  -------         DO            
  D:0007H         SYMBOL        temp
  -------         ENDDO         
  C:D1CAH         LINE#         5917
  C:D1CAH         LINE#         5918
  C:D1CAH         LINE#         5920
  C:D1CFH         LINE#         5921
  C:D1D2H         LINE#         5922
  C:D1D6H         LINE#         5923
  -------         ENDPROC       RESET_CPHA
  -------         PROC          SET_CPHA
  -------         DO            
  D:0007H         SYMBOL        temp
  -------         ENDDO         
  C:D1D9H         LINE#         5926
  C:D1D9H         LINE#         5927
  C:D1D9H         LINE#         5929
  C:D1DEH         LINE#         5930
  C:D1E1H         LINE#         5931
  C:D1E5H         LINE#         5932
BL51 BANKED LINKER/LOCATER V6.22                                                      07/02/2019  17:10:49  PAGE 116


  -------         ENDPROC       SET_CPHA
  -------         PROC          TX_FIFO_EMPTY_FLAG
  C:C48DH         LINE#         5937
  C:C48DH         LINE#         5938
  C:C48DH         LINE#         5939
  C:C492H         LINE#         5940
  C:C499H         LINE#         5941
  C:C49CH         LINE#         5943
  C:C49EH         LINE#         5944
  -------         ENDPROC       TX_FIFO_EMPTY_FLAG
  -------         PROC          TX_FIFO_FULL_FLAG
  C:C49FH         LINE#         5946
  C:C49FH         LINE#         5947
  C:C49FH         LINE#         5948
  C:C4A4H         LINE#         5949
  C:C4ABH         LINE#         5950
  C:C4AEH         LINE#         5952
  C:C4B0H         LINE#         5953
  -------         ENDPROC       TX_FIFO_FULL_FLAG
  -------         PROC          RX_FIFO_EMPTY_FLAG
  C:C4B1H         LINE#         5955
  C:C4B1H         LINE#         5956
  C:C4B1H         LINE#         5957
  C:C4B6H         LINE#         5958
  C:C4BDH         LINE#         5959
  C:C4C0H         LINE#         5961
  C:C4C2H         LINE#         5962
  -------         ENDPROC       RX_FIFO_EMPTY_FLAG
  -------         PROC          RX_FIFO_FULL_FLAG
  C:C4C3H         LINE#         5964
  C:C4C3H         LINE#         5965
  C:C4C3H         LINE#         5966
  C:C4C8H         LINE#         5967
  C:C4CFH         LINE#         5968
  C:C4D2H         LINE#         5970
  C:C4D4H         LINE#         5971
  -------         ENDPROC       RX_FIFO_FULL_FLAG
  -------         PROC          OVFI_FLAG
  C:C4D5H         LINE#         5973
  C:C4D5H         LINE#         5974
  C:C4D5H         LINE#         5975
  C:C4DAH         LINE#         5976
  C:C4E1H         LINE#         5977
  C:C4E4H         LINE#         5979
  C:C4E6H         LINE#         5980
  -------         ENDPROC       OVFI_FLAG
  -------         PROC          CLEAR_OVFI_FLAG
  -------         DO            
  D:0007H         SYMBOL        temp
  -------         ENDDO         
  C:D1E8H         LINE#         5982
  C:D1E8H         LINE#         5983
  C:D1E8H         LINE#         5985
  C:D1EDH         LINE#         5986
  C:D1F0H         LINE#         5987
  C:D1F4H         LINE#         5988
  -------         ENDPROC       CLEAR_OVFI_FLAG
BL51 BANKED LINKER/LOCATER V6.22                                                      07/02/2019  17:10:49  PAGE 117


  -------         PROC          EMTI_FLAG
  C:C4E7H         LINE#         5991
  C:C4E7H         LINE#         5992
  C:C4E7H         LINE#         5993
  C:C4ECH         LINE#         5994
  C:C4F3H         LINE#         5995
  C:C4F6H         LINE#         5997
  C:C4F8H         LINE#         5998
  -------         ENDPROC       EMTI_FLAG
  -------         PROC          CLEAR_EMTI_FLAG
  -------         DO            
  D:0007H         SYMBOL        temp
  -------         ENDDO         
  C:D1F7H         LINE#         6000
  C:D1F7H         LINE#         6001
  C:D1F7H         LINE#         6003
  C:D1FCH         LINE#         6004
  C:D1FFH         LINE#         6005
  C:D203H         LINE#         6006
  -------         ENDPROC       CLEAR_EMTI_FLAG
  -------         PROC          _SPI_CLOCK_PERIOD
  D:0004H         SYMBOL        temp
  C:D3AEH         LINE#         6011
  C:D3B0H         LINE#         6012
  C:D3B0H         LINE#         6013
  C:D3B5H         LINE#         6014
  -------         ENDPROC       _SPI_CLOCK_PERIOD
  C:AD04H         SYMBOL        L?1056
  -------         PROC          L?1055
  -------         ENDPROC       L?1055
  C:AD04H         SYMBOL        L?1056
  -------         PROC          _SFI_DMA_SOURCE_START_ADDRESS
  X:0232H         SYMBOL        Addr
  C:AD0BH         LINE#         6018
  C:AD11H         LINE#         6019
  C:AD11H         LINE#         6024
  C:AD16H         LINE#         6025
  C:AD21H         LINE#         6026
  C:AD26H         LINE#         6027
  C:AD3CH         LINE#         6028
  C:AD41H         LINE#         6029
  C:AD57H         LINE#         6030
  C:AD5CH         LINE#         6031
  -------         ENDPROC       _SFI_DMA_SOURCE_START_ADDRESS
  -------         PROC          _SFI_DMA_DESTINATION_START_ADDRESS
  X:035EH         SYMBOL        Addr
  C:ADDDH         LINE#         6034
  C:ADE3H         LINE#         6035
  C:ADE3H         LINE#         6041
  C:ADE8H         LINE#         6042
  C:ADF3H         LINE#         6043
  C:ADF8H         LINE#         6044
  C:AE0EH         LINE#         6045
  C:AE13H         LINE#         6046
  C:AE29H         LINE#         6047
  C:AE2EH         LINE#         6048
  -------         ENDPROC       _SFI_DMA_DESTINATION_START_ADDRESS
BL51 BANKED LINKER/LOCATER V6.22                                                      07/02/2019  17:10:49  PAGE 118


  C:B27EH         SYMBOL        L?1043
  -------         PROC          L?1042
  -------         ENDPROC       L?1042
  C:B27EH         SYMBOL        L?1043
  -------         PROC          _SFI_DMA_DESTINATION_UPPER_LEFT_CORNER
  X:0232H         SYMBOL        WX
  D:0002H         SYMBOL        HY
  C:B283H         LINE#         6051
  C:B28FH         LINE#         6052
  C:B28FH         LINE#         6079
  C:B294H         LINE#         6080
  C:B29DH         LINE#         6081
  C:B2A2H         LINE#         6082
  C:B2AAH         LINE#         6084
  C:B2AFH         LINE#         6085
  C:B2B4H         LINE#         6086
  C:B2B9H         LINE#         6087
  -------         ENDPROC       _SFI_DMA_DESTINATION_UPPER_LEFT_CORNER
  -------         PROC          _SFI_DMA_TRANSFER_NUMBER
  X:0362H         SYMBOL        Addr
  C:AE44H         LINE#         6093
  C:AE4AH         LINE#         6094
  C:AE4AH         LINE#         6104
  C:AE4FH         LINE#         6105
  C:AE5AH         LINE#         6106
  C:AE5FH         LINE#         6107
  C:AE75H         LINE#         6108
  C:AE7AH         LINE#         6109
  C:AE90H         LINE#         6110
  C:AE95H         LINE#         6111
  -------         ENDPROC       _SFI_DMA_TRANSFER_NUMBER
  -------         PROC          _SFI_DMA_TRANSFER_WIDTH_HEIGHT
  X:0232H         SYMBOL        WX
  D:0002H         SYMBOL        HY
  C:B93BH         LINE#         6113
  C:B947H         LINE#         6114
  C:B947H         LINE#         6123
  C:B94CH         LINE#         6124
  C:B955H         LINE#         6125
  C:B95AH         LINE#         6126
  C:B962H         LINE#         6128
  C:B967H         LINE#         6129
  C:B96CH         LINE#         6130
  C:B971H         LINE#         6131
  -------         ENDPROC       _SFI_DMA_TRANSFER_WIDTH_HEIGHT
  C:BAD0H         SYMBOL        L?0971
  C:BAD2H         SYMBOL        L?0972
  C:BADFH         SYMBOL        L?0973
  C:BAE2H         SYMBOL        L?0974
  -------         PROC          L?0970
  -------         ENDPROC       L?0970
  C:BAD0H         SYMBOL        L?0971
  C:BAD2H         SYMBOL        L?0972
  C:BADFH         SYMBOL        L?0973
  C:BAE2H         SYMBOL        L?0974
  -------         PROC          _SFI_DMA_SOURCE_WIDTH
  D:0002H         SYMBOL        WX
BL51 BANKED LINKER/LOCATER V6.22                                                      07/02/2019  17:10:49  PAGE 119


  C:BAE9H         LINE#         6134
  C:BAEDH         LINE#         6135
  C:BAEDH         LINE#         6140
  C:BAF2H         LINE#         6141
  C:BAF7H         LINE#         6142
  C:BAFCH         LINE#         6143
  -------         ENDPROC       _SFI_DMA_SOURCE_WIDTH
  -------         PROC          FONT_SELECT_USERDEFINE_MODE
  -------         DO            
  D:0007H         SYMBOL        temp
  -------         ENDDO         
  C:C91BH         LINE#         6148
  C:C91BH         LINE#         6149
  C:C91BH         LINE#         6157
  C:C920H         LINE#         6158
  C:C923H         LINE#         6159
  C:C926H         LINE#         6160
  C:C929H         LINE#         6161
  -------         ENDPROC       FONT_SELECT_USERDEFINE_MODE
  C:BFD0H         SYMBOL        L?0967
  C:BFD2H         SYMBOL        L?0968
  C:BFD9H         SYMBOL        L?0969
  -------         PROC          L?0966
  -------         ENDPROC       L?0966
  C:BFD0H         SYMBOL        L?0967
  C:BFD2H         SYMBOL        L?0968
  C:BFD9H         SYMBOL        L?0969
  -------         PROC          CGROM_SELECT_INTERNAL_CGROM
  -------         DO            
  D:0007H         SYMBOL        temp
  -------         ENDDO         
  C:BFDEH         LINE#         6163
  C:BFDEH         LINE#         6164
  C:BFDEH         LINE#         6172
  C:BFE3H         LINE#         6173
  C:BFE6H         LINE#         6174
  C:BFE9H         LINE#         6175
  C:BFECH         LINE#         6176
  -------         ENDPROC       CGROM_SELECT_INTERNAL_CGROM
  -------         PROC          CGROM_SELECT_GENITOP_FONTROM
  -------         DO            
  D:0007H         SYMBOL        temp
  -------         ENDDO         
  C:C92CH         LINE#         6178
  C:C92CH         LINE#         6179
  C:C92CH         LINE#         6187
  C:C931H         LINE#         6188
  C:C934H         LINE#         6189
  C:C937H         LINE#         6190
  C:C93AH         LINE#         6191
  -------         ENDPROC       CGROM_SELECT_GENITOP_FONTROM
  -------         PROC          FONT_SELECT_8X16_16X16
  -------         DO            
  D:0007H         SYMBOL        temp
  -------         ENDDO         
  C:C93DH         LINE#         6193
  C:C93DH         LINE#         6194
BL51 BANKED LINKER/LOCATER V6.22                                                      07/02/2019  17:10:49  PAGE 120


  C:C93DH         LINE#         6205
  C:C942H         LINE#         6206
  C:C945H         LINE#         6207
  C:C948H         LINE#         6208
  C:C94BH         LINE#         6209
  -------         ENDPROC       FONT_SELECT_8X16_16X16
  -------         PROC          L?1061
  -------         ENDPROC       L?1061
  -------         PROC          FONT_SELECT_12X24_24X24
  -------         DO            
  D:0007H         SYMBOL        temp
  -------         ENDDO         
  C:C01AH         LINE#         6211
  C:C01AH         LINE#         6212
  C:C01AH         LINE#         6223
  C:C01FH         LINE#         6224
  C:C022H         LINE#         6225
  C:C025H         LINE#         6226
  C:C028H         LINE#         6227
  -------         ENDPROC       FONT_SELECT_12X24_24X24
  -------         PROC          FONT_SELECT_16X32_32X32
  -------         DO            
  D:0007H         SYMBOL        temp
  -------         ENDDO         
  C:C94EH         LINE#         6229
  C:C94EH         LINE#         6230
  C:C94EH         LINE#         6241
  C:C953H         LINE#         6242
  C:C956H         LINE#         6243
  C:C959H         LINE#         6244
  C:C95CH         LINE#         6245
  -------         ENDPROC       FONT_SELECT_16X32_32X32
  -------         PROC          INTERNAL_CGROM_SELECT_ISOIEC8859_1
  -------         DO            
  D:0007H         SYMBOL        temp
  -------         ENDDO         
  C:C95FH         LINE#         6247
  C:C95FH         LINE#         6248
  C:C95FH         LINE#         6260
  C:C964H         LINE#         6261
  C:C967H         LINE#         6262
  C:C96AH         LINE#         6263
  C:C96DH         LINE#         6264
  -------         ENDPROC       INTERNAL_CGROM_SELECT_ISOIEC8859_1
  -------         PROC          INTERNAL_CGROM_SELECT_ISOIEC8859_2
  -------         DO            
  D:0007H         SYMBOL        temp
  -------         ENDDO         
  C:C970H         LINE#         6266
  C:C970H         LINE#         6267
  C:C970H         LINE#         6279
  C:C975H         LINE#         6280
  C:C978H         LINE#         6281
  C:C97BH         LINE#         6282
  C:C97EH         LINE#         6283
  -------         ENDPROC       INTERNAL_CGROM_SELECT_ISOIEC8859_2
  -------         PROC          INTERNAL_CGROM_SELECT_ISOIEC8859_3
BL51 BANKED LINKER/LOCATER V6.22                                                      07/02/2019  17:10:49  PAGE 121


  -------         DO            
  D:0007H         SYMBOL        temp
  -------         ENDDO         
  C:C981H         LINE#         6285
  C:C981H         LINE#         6286
  C:C981H         LINE#         6298
  C:C986H         LINE#         6299
  C:C989H         LINE#         6300
  C:C98CH         LINE#         6301
  C:C98FH         LINE#         6302
  -------         ENDPROC       INTERNAL_CGROM_SELECT_ISOIEC8859_3
  -------         PROC          INTERNAL_CGROM_SELECT_ISOIEC8859_4
  -------         DO            
  D:0007H         SYMBOL        temp
  -------         ENDDO         
  C:C992H         LINE#         6304
  C:C992H         LINE#         6305
  C:C992H         LINE#         6317
  C:C997H         LINE#         6318
  C:C99AH         LINE#         6319
  C:C99DH         LINE#         6320
  C:C9A0H         LINE#         6321
  -------         ENDPROC       INTERNAL_CGROM_SELECT_ISOIEC8859_4
  -------         PROC          ENABLE_FONT_ALIGNMENT
  -------         DO            
  D:0007H         SYMBOL        temp
  -------         ENDDO         
  C:D206H         LINE#         6324
  C:D206H         LINE#         6325
  C:D206H         LINE#         6332
  C:D20BH         LINE#         6333
  C:D20EH         LINE#         6334
  C:D212H         LINE#         6335
  -------         ENDPROC       ENABLE_FONT_ALIGNMENT
  -------         PROC          DISABLE_FONT_ALIGNMENT
  -------         DO            
  D:0007H         SYMBOL        temp
  -------         ENDDO         
  C:D215H         LINE#         6337
  C:D215H         LINE#         6338
  C:D215H         LINE#         6345
  C:D21AH         LINE#         6346
  C:D21DH         LINE#         6347
  C:D221H         LINE#         6348
  -------         ENDPROC       DISABLE_FONT_ALIGNMENT
  -------         PROC          FONT_BACKGROUND_SELECT_TRANSPARENCY
  -------         DO            
  D:0007H         SYMBOL        temp
  -------         ENDDO         
  C:D224H         LINE#         6350
  C:D224H         LINE#         6351
  C:D224H         LINE#         6358
  C:D229H         LINE#         6359
  C:D22CH         LINE#         6360
  C:D230H         LINE#         6361
  -------         ENDPROC       FONT_BACKGROUND_SELECT_TRANSPARENCY
  -------         PROC          FONT_BACKGROUND_SELECT_COLOR
BL51 BANKED LINKER/LOCATER V6.22                                                      07/02/2019  17:10:49  PAGE 122


  -------         DO            
  D:0007H         SYMBOL        temp
  -------         ENDDO         
  C:D233H         LINE#         6363
  C:D233H         LINE#         6364
  C:D233H         LINE#         6371
  C:D238H         LINE#         6372
  C:D23BH         LINE#         6373
  C:D23FH         LINE#         6374
  -------         ENDPROC       FONT_BACKGROUND_SELECT_COLOR
  -------         PROC          FONT_0_DEGREE
  -------         DO            
  D:0007H         SYMBOL        temp
  -------         ENDDO         
  C:D242H         LINE#         6376
  C:D242H         LINE#         6377
  C:D242H         LINE#         6389
  C:D247H         LINE#         6390
  C:D24AH         LINE#         6391
  C:D24EH         LINE#         6392
  -------         ENDPROC       FONT_0_DEGREE
  -------         PROC          FONT_90_DEGREE
  -------         DO            
  D:0007H         SYMBOL        temp
  -------         ENDDO         
  C:D251H         LINE#         6394
  C:D251H         LINE#         6395
  C:D251H         LINE#         6407
  C:D256H         LINE#         6408
  C:D259H         LINE#         6409
  C:D25DH         LINE#         6410
  -------         ENDPROC       FONT_90_DEGREE
  -------         PROC          FONT_WIDTH_X1
  -------         DO            
  D:0007H         SYMBOL        temp
  -------         ENDDO         
  C:C9A3H         LINE#         6412
  C:C9A3H         LINE#         6413
  C:C9A3H         LINE#         6422
  C:C9A8H         LINE#         6423
  C:C9ABH         LINE#         6424
  C:C9AEH         LINE#         6425
  C:C9B1H         LINE#         6426
  -------         ENDPROC       FONT_WIDTH_X1
  -------         PROC          FONT_WIDTH_X2
  -------         DO            
  D:0007H         SYMBOL        temp
  -------         ENDDO         
  C:C9B4H         LINE#         6428
  C:C9B4H         LINE#         6429
  C:C9B4H         LINE#         6438
  C:C9B9H         LINE#         6439
  C:C9BCH         LINE#         6440
  C:C9BFH         LINE#         6441
  C:C9C2H         LINE#         6442
  -------         ENDPROC       FONT_WIDTH_X2
  -------         PROC          FONT_WIDTH_X3
BL51 BANKED LINKER/LOCATER V6.22                                                      07/02/2019  17:10:49  PAGE 123


  -------         DO            
  D:0007H         SYMBOL        temp
  -------         ENDDO         
  C:C9C5H         LINE#         6444
  C:C9C5H         LINE#         6445
  C:C9C5H         LINE#         6454
  C:C9CAH         LINE#         6455
  C:C9CDH         LINE#         6456
  C:C9D0H         LINE#         6457
  C:C9D3H         LINE#         6458
  -------         ENDPROC       FONT_WIDTH_X3
  -------         PROC          FONT_WIDTH_X4
  -------         DO            
  D:0007H         SYMBOL        temp
  -------         ENDDO         
  C:C9D6H         LINE#         6460
  C:C9D6H         LINE#         6461
  C:C9D6H         LINE#         6470
  C:C9DBH         LINE#         6471
  C:C9DEH         LINE#         6472
  C:C9E1H         LINE#         6473
  C:C9E4H         LINE#         6474
  -------         ENDPROC       FONT_WIDTH_X4
  -------         PROC          FONT_HEIGHT_X1
  -------         DO            
  D:0007H         SYMBOL        temp
  -------         ENDDO         
  C:C9E7H         LINE#         6476
  C:C9E7H         LINE#         6477
  C:C9E7H         LINE#         6486
  C:C9ECH         LINE#         6487
  C:C9EFH         LINE#         6488
  C:C9F2H         LINE#         6489
  C:C9F5H         LINE#         6490
  -------         ENDPROC       FONT_HEIGHT_X1
  -------         PROC          FONT_HEIGHT_X2
  -------         DO            
  D:0007H         SYMBOL        temp
  -------         ENDDO         
  C:C9F8H         LINE#         6492
  C:C9F8H         LINE#         6493
  C:C9F8H         LINE#         6502
  C:C9FDH         LINE#         6503
  C:CA00H         LINE#         6504
  C:CA03H         LINE#         6505
  C:CA06H         LINE#         6506
  -------         ENDPROC       FONT_HEIGHT_X2
  -------         PROC          FONT_HEIGHT_X3
  -------         DO            
  D:0007H         SYMBOL        temp
  -------         ENDDO         
  C:CA09H         LINE#         6508
  C:CA09H         LINE#         6509
  C:CA09H         LINE#         6518
  C:CA0EH         LINE#         6519
  C:CA11H         LINE#         6520
  C:CA14H         LINE#         6521
BL51 BANKED LINKER/LOCATER V6.22                                                      07/02/2019  17:10:49  PAGE 124


  C:CA17H         LINE#         6522
  -------         ENDPROC       FONT_HEIGHT_X3
  -------         PROC          FONT_HEIGHT_X4
  -------         DO            
  D:0007H         SYMBOL        temp
  -------         ENDDO         
  C:CA1AH         LINE#         6524
  C:CA1AH         LINE#         6525
  C:CA1AH         LINE#         6534
  C:CA1FH         LINE#         6535
  C:CA22H         LINE#         6536
  C:CA25H         LINE#         6537
  C:CA28H         LINE#         6538
  -------         ENDPROC       FONT_HEIGHT_X4
  -------         PROC          GTFONT_SELECT_GT21L16TW_GT21H16T1W
  -------         DO            
  D:0007H         SYMBOL        temp
  -------         ENDDO         
  C:C376H         LINE#         6542
  C:C376H         LINE#         6543
  C:C376H         LINE#         6556
  C:C37BH         LINE#         6557
  C:C37EH         LINE#         6558
  C:C381H         LINE#         6559
  C:C383H         LINE#         6560
  C:C386H         LINE#         6561
  -------         ENDPROC       GTFONT_SELECT_GT21L16TW_GT21H16T1W
  -------         PROC          GTFONT_SELECT_GT23L16U2W
  -------         DO            
  D:0007H         SYMBOL        temp
  -------         ENDDO         
  C:C389H         LINE#         6563
  C:C389H         LINE#         6564
  C:C389H         LINE#         6577
  C:C38EH         LINE#         6578
  C:C391H         LINE#         6579
  C:C394H         LINE#         6580
  C:C396H         LINE#         6581
  C:C399H         LINE#         6582
  -------         ENDPROC       GTFONT_SELECT_GT23L16U2W
  -------         PROC          GTFONT_SELECT_GT23L24T3Y_GT23H24T3Y
  -------         DO            
  D:0007H         SYMBOL        temp
  -------         ENDDO         
  C:C39CH         LINE#         6584
  C:C39CH         LINE#         6585
  C:C39CH         LINE#         6598
  C:C3A1H         LINE#         6599
  C:C3A4H         LINE#         6600
  C:C3A7H         LINE#         6601
  C:C3A9H         LINE#         6602
  C:C3ACH         LINE#         6603
  -------         ENDPROC       GTFONT_SELECT_GT23L24T3Y_GT23H24T3Y
  -------         PROC          GTFONT_SELECT_GT23L24M1Z
  -------         DO            
  D:0007H         SYMBOL        temp
  -------         ENDDO         
BL51 BANKED LINKER/LOCATER V6.22                                                      07/02/2019  17:10:49  PAGE 125


  C:C3AFH         LINE#         6605
  C:C3AFH         LINE#         6606
  C:C3AFH         LINE#         6619
  C:C3B4H         LINE#         6620
  C:C3B7H         LINE#         6621
  C:C3BAH         LINE#         6622
  C:C3BCH         LINE#         6623
  C:C3BFH         LINE#         6624
  -------         ENDPROC       GTFONT_SELECT_GT23L24M1Z
  -------         PROC          GTFONT_SELECT_GT23L32S4W_GT23H32S4W
  -------         DO            
  D:0007H         SYMBOL        temp
  -------         ENDDO         
  C:C3C2H         LINE#         6626
  C:C3C2H         LINE#         6627
  C:C3C2H         LINE#         6640
  C:C3C7H         LINE#         6641
  C:C3CAH         LINE#         6642
  C:C3CDH         LINE#         6643
  C:C3CFH         LINE#         6644
  C:C3D2H         LINE#         6645
  -------         ENDPROC       GTFONT_SELECT_GT23L32S4W_GT23H32S4W
  -------         PROC          GTFONT_SELECT_GT20L24F6Y
  -------         DO            
  D:0007H         SYMBOL        temp
  -------         ENDDO         
  C:C3D5H         LINE#         6647
  C:C3D5H         LINE#         6648
  C:C3D5H         LINE#         6661
  C:C3DAH         LINE#         6662
  C:C3DDH         LINE#         6663
  C:C3E0H         LINE#         6664
  C:C3E2H         LINE#         6665
  C:C3E5H         LINE#         6666
  -------         ENDPROC       GTFONT_SELECT_GT20L24F6Y
  -------         PROC          GTFONT_SELECT_GT21L24S1W
  -------         DO            
  D:0007H         SYMBOL        temp
  -------         ENDDO         
  C:C3E8H         LINE#         6668
  C:C3E8H         LINE#         6669
  C:C3E8H         LINE#         6682
  C:C3EDH         LINE#         6683
  C:C3F0H         LINE#         6684
  C:C3F3H         LINE#         6685
  C:C3F5H         LINE#         6686
  C:C3F8H         LINE#         6687
  -------         ENDPROC       GTFONT_SELECT_GT21L24S1W
  -------         PROC          GTFONT_SELECT_GT22L16A1Y
  -------         DO            
  D:0007H         SYMBOL        temp
  -------         ENDDO         
  C:C3FBH         LINE#         6689
  C:C3FBH         LINE#         6690
  C:C3FBH         LINE#         6703
  C:C400H         LINE#         6704
  C:C403H         LINE#         6705
BL51 BANKED LINKER/LOCATER V6.22                                                      07/02/2019  17:10:49  PAGE 126


  C:C406H         LINE#         6706
  C:C408H         LINE#         6707
  C:C40BH         LINE#         6708
  -------         ENDPROC       GTFONT_SELECT_GT22L16A1Y
  -------         PROC          _SET_GTFONT_DECODER
  D:0004H         SYMBOL        temp
  C:D3BAH         LINE#         6712
  C:D3BCH         LINE#         6713
  C:D3BCH         LINE#         6751
  C:D3C1H         LINE#         6752
  -------         ENDPROC       _SET_GTFONT_DECODER
  -------         PROC          _FONT_LINE_DISTANCE
  D:0004H         SYMBOL        temp
  C:D3C6H         LINE#         6755
  C:D3C8H         LINE#         6756
  C:D3C8H         LINE#         6762
  C:D3CDH         LINE#         6763
  -------         ENDPROC       _FONT_LINE_DISTANCE
  -------         PROC          _SET_FONT_TO_FONT_WIDTH
  D:0004H         SYMBOL        temp
  C:D3D2H         LINE#         6766
  C:D3D4H         LINE#         6767
  C:D3D4H         LINE#         6771
  C:D3D9H         LINE#         6772
  -------         ENDPROC       _SET_FONT_TO_FONT_WIDTH
  -------         PROC          _FOREGROUND_RGB
  D:0004H         SYMBOL        RED
  D:0002H         SYMBOL        GREEN
  D:0003H         SYMBOL        BLUE
  C:BF0CH         LINE#         6775
  C:BF10H         LINE#         6776
  C:BF10H         LINE#         6782
  C:BF15H         LINE#         6783
  C:BF1AH         LINE#         6785
  C:BF1FH         LINE#         6786
  C:BF24H         LINE#         6788
  C:BF29H         LINE#         6789
  -------         ENDPROC       _FOREGROUND_RGB
  -------         PROC          _FOREGROUND_COLOR_256
  D:0004H         SYMBOL        temp
  C:BDA0H         LINE#         6793
  C:BDA2H         LINE#         6794
  C:BDA2H         LINE#         6795
  C:BDA7H         LINE#         6796
  C:BDACH         LINE#         6798
  C:BDB1H         LINE#         6799
  C:BDBBH         LINE#         6801
  C:BDC0H         LINE#         6802
  -------         ENDPROC       _FOREGROUND_COLOR_256
  C:B727H         SYMBOL        L?1036
  -------         PROC          L?1035
  -------         ENDPROC       L?1035
  C:B727H         SYMBOL        L?1036
  -------         PROC          _FOREGROUND_COLOR_65K
  D:0002H         SYMBOL        temp
  C:B72BH         LINE#         6806
  C:B72FH         LINE#         6807
BL51 BANKED LINKER/LOCATER V6.22                                                      07/02/2019  17:10:49  PAGE 127


  C:B72FH         LINE#         6808
  C:B734H         LINE#         6809
  C:B739H         LINE#         6811
  C:B73EH         LINE#         6812
  C:B74EH         LINE#         6814
  C:B753H         LINE#         6815
  -------         ENDPROC       _FOREGROUND_COLOR_65K
  -------         PROC          _FOREGROUND_COLOR_16M
  X:0366H         SYMBOL        temp
  C:B358H         LINE#         6819
  C:B35EH         LINE#         6820
  C:B35EH         LINE#         6821
  C:B363H         LINE#         6822
  C:B379H         LINE#         6824
  C:B37EH         LINE#         6825
  C:B394H         LINE#         6827
  C:B399H         LINE#         6828
  -------         ENDPROC       _FOREGROUND_COLOR_16M
  -------         PROC          _BACKGROUND_RGB
  D:0004H         SYMBOL        RED
  D:0002H         SYMBOL        GREEN
  D:0003H         SYMBOL        BLUE
  C:BF2EH         LINE#         6839
  C:BF32H         LINE#         6840
  C:BF32H         LINE#         6842
  C:BF37H         LINE#         6843
  C:BF3CH         LINE#         6845
  C:BF41H         LINE#         6846
  C:BF46H         LINE#         6848
  C:BF4BH         LINE#         6849
  -------         ENDPROC       _BACKGROUND_RGB
  -------         PROC          _BACKGROUND_COLOR_256
  D:0004H         SYMBOL        temp
  C:BDCCH         LINE#         6853
  C:BDCEH         LINE#         6854
  C:BDCEH         LINE#         6855
  C:BDD3H         LINE#         6856
  C:BDD8H         LINE#         6858
  C:BDDDH         LINE#         6859
  C:BDE7H         LINE#         6861
  C:BDECH         LINE#         6862
  -------         ENDPROC       _BACKGROUND_COLOR_256
  C:B626H         SYMBOL        L?0998
  C:B629H         SYMBOL        L?0999
  -------         PROC          L?0997
  -------         ENDPROC       L?0997
  C:B626H         SYMBOL        L?0998
  C:B629H         SYMBOL        L?0999
  -------         PROC          _BACKGROUND_COLOR_65K
  D:0002H         SYMBOL        temp
  C:B630H         LINE#         6866
  C:B634H         LINE#         6867
  C:B634H         LINE#         6868
  C:B639H         LINE#         6869
  C:B63EH         LINE#         6871
  C:B643H         LINE#         6872
  C:B653H         LINE#         6874
BL51 BANKED LINKER/LOCATER V6.22                                                      07/02/2019  17:10:49  PAGE 128


  C:B658H         LINE#         6875
  -------         ENDPROC       _BACKGROUND_COLOR_65K
  -------         PROC          _BACKGROUND_COLOR_16M
  X:036AH         SYMBOL        temp
  C:B3A4H         LINE#         6879
  C:B3AAH         LINE#         6880
  C:B3AAH         LINE#         6881
  C:B3AFH         LINE#         6882
  C:B3C5H         LINE#         6884
  C:B3CAH         LINE#         6885
  C:B3E0H         LINE#         6887
  C:B3E5H         LINE#         6888
  -------         ENDPROC       _BACKGROUND_COLOR_16M
  -------         PROC          _CGRAM_START_ADDRESS
  X:036EH         SYMBOL        Addr
  C:AEABH         LINE#         6892
  C:AEB1H         LINE#         6893
  C:AEB1H         LINE#         6897
  C:AEB6H         LINE#         6898
  C:AEC1H         LINE#         6899
  C:AEC6H         LINE#         6900
  C:AEDCH         LINE#         6901
  C:AEE1H         LINE#         6902
  C:AEF7H         LINE#         6903
  C:AEFCH         LINE#         6904
  -------         ENDPROC       _CGRAM_START_ADDRESS
  -------         PROC          POWER_NORMAL_MODE
  C:D4FCH         LINE#         6918
  C:D4FCH         LINE#         6919
  C:D4FCH         LINE#         6920
  C:D501H         LINE#         6921
  -------         ENDPROC       POWER_NORMAL_MODE
  -------         PROC          POWER_SAVING_STANDBY_MODE
  C:C2DDH         LINE#         6923
  C:C2DDH         LINE#         6924
  C:C2DDH         LINE#         6925
  C:C2E2H         LINE#         6926
  C:C2E7H         LINE#         6927
  C:C2ECH         LINE#         6928
  -------         ENDPROC       POWER_SAVING_STANDBY_MODE
  -------         PROC          POWER_SAVING_SUSPEND_MODE
  C:D506H         LINE#         6930
  C:D506H         LINE#         6931
  C:D506H         LINE#         6932
  C:D50BH         LINE#         6935
  -------         ENDPROC       POWER_SAVING_SUSPEND_MODE
  -------         PROC          POWER_SAVING_SLEEP_MODE
  C:D510H         LINE#         6937
  C:D510H         LINE#         6938
  C:D510H         LINE#         6939
  C:D515H         LINE#         6942
  -------         ENDPROC       POWER_SAVING_SLEEP_MODE
  -------         PROC          _RA8876_I2CM_CLOCK_PRESCALE
  D:0002H         SYMBOL        WX
  C:C1FAH         LINE#         6947
  C:C1FEH         LINE#         6948
  C:C1FEH         LINE#         6953
BL51 BANKED LINKER/LOCATER V6.22                                                      07/02/2019  17:10:49  PAGE 129


  C:C203H         LINE#         6954
  C:C208H         LINE#         6955
  C:C20DH         LINE#         6956
  -------         ENDPROC       _RA8876_I2CM_CLOCK_PRESCALE
  -------         PROC          _RA8876_I2CM_TRANSMIT_DATA
  D:0004H         SYMBOL        temp
  C:D3DEH         LINE#         6959
  C:D3E0H         LINE#         6960
  C:D3E0H         LINE#         6964
  C:D3E5H         LINE#         6965
  -------         ENDPROC       _RA8876_I2CM_TRANSMIT_DATA
  -------         PROC          RA8876_I2CM_RECEIVER_DATA
  -------         DO            
  D:0007H         SYMBOL        temp
  -------         ENDDO         
  C:D523H         LINE#         6968
  C:D523H         LINE#         6969
  C:D523H         LINE#         6974
  C:D528H         LINE#         6975
  C:D52BH         LINE#         6976
  C:D52BH         LINE#         6977
  -------         ENDPROC       RA8876_I2CM_RECEIVER_DATA
  -------         PROC          RA8876_I2CM_STOP
  C:D5CDH         LINE#         7004
  C:D5CDH         LINE#         7005
  C:D5CDH         LINE#         7006
  -------         ENDPROC       RA8876_I2CM_STOP
  -------         PROC          RA8876_I2CM_READ_WITH_ACK
  C:D5D2H         LINE#         7015
  C:D5D2H         LINE#         7016
  C:D5D2H         LINE#         7018
  -------         ENDPROC       RA8876_I2CM_READ_WITH_ACK
  -------         PROC          RA8876_I2CM_READ_WITH_NACK
  C:D5D7H         LINE#         7027
  C:D5D7H         LINE#         7028
  C:D5D7H         LINE#         7030
  -------         ENDPROC       RA8876_I2CM_READ_WITH_NACK
  -------         PROC          RA8876_I2CM_WRITE_WITH_START
  C:D5DCH         LINE#         7039
  C:D5DCH         LINE#         7040
  C:D5DCH         LINE#         7041
  -------         ENDPROC       RA8876_I2CM_WRITE_WITH_START
  -------         PROC          RA8876_I2CM_WRITE
  C:D5E1H         LINE#         7052
  C:D5E1H         LINE#         7053
  C:D5E1H         LINE#         7054
  -------         ENDPROC       RA8876_I2CM_WRITE
  -------         PROC          RA8876_I2CM_CHECK_SLAVE_ACK
  -------         DO            
  D:0007H         SYMBOL        temp
  -------         ENDDO         
  C:C4F9H         LINE#         7070
  C:C4F9H         LINE#         7071
  C:C4F9H         LINE#         7078
  C:C4FEH         LINE#         7079
  C:C501H         LINE#         7080
  C:C505H         LINE#         7081
BL51 BANKED LINKER/LOCATER V6.22                                                      07/02/2019  17:10:49  PAGE 130


  C:C508H         LINE#         7083
  C:C50AH         LINE#         7084
  -------         ENDPROC       RA8876_I2CM_CHECK_SLAVE_ACK
  -------         PROC          RA8876_I2CM_BUS_BUSY
  -------         DO            
  D:0007H         SYMBOL        temp
  -------         ENDDO         
  C:C50BH         LINE#         7091
  C:C50BH         LINE#         7092
  C:C50BH         LINE#         7100
  C:C510H         LINE#         7101
  C:C513H         LINE#         7102
  C:C517H         LINE#         7103
  C:C51AH         LINE#         7105
  C:C51CH         LINE#         7106
  -------         ENDPROC       RA8876_I2CM_BUS_BUSY
  -------         PROC          RA8876_I2CM_TRANSMIT_PROGRESS
  -------         DO            
  D:0007H         SYMBOL        temp
  -------         ENDDO         
  C:C51DH         LINE#         7112
  C:C51DH         LINE#         7113
  C:C51DH         LINE#         7119
  C:C522H         LINE#         7120
  C:C525H         LINE#         7121
  C:C529H         LINE#         7122
  C:C52CH         LINE#         7124
  C:C52EH         LINE#         7125
  -------         ENDPROC       RA8876_I2CM_TRANSMIT_PROGRESS
  -------         PROC          RA8876_I2CM_ARBITRATION
  -------         DO            
  D:0007H         SYMBOL        temp
  -------         ENDDO         
  C:D34DH         LINE#         7131
  C:D34DH         LINE#         7132
  C:D34DH         LINE#         7139
  C:D352H         LINE#         7140
  C:D355H         LINE#         7141
  C:D359H         LINE#         7142
  C:D359H         LINE#         7143
  -------         ENDPROC       RA8876_I2CM_ARBITRATION
  -------         PROC          _SET_GPIO_A_IN_OUT
  D:0004H         SYMBOL        temp
  C:D3EAH         LINE#         7147
  C:D3ECH         LINE#         7148
  C:D3ECH         LINE#         7154
  C:D3F1H         LINE#         7155
  -------         ENDPROC       _SET_GPIO_A_IN_OUT
  -------         PROC          _WRITE_GPIO_A_7_0
  D:0004H         SYMBOL        temp
  C:D3F6H         LINE#         7158
  C:D3F8H         LINE#         7159
  C:D3F8H         LINE#         7164
  C:D3FDH         LINE#         7165
  -------         ENDPROC       _WRITE_GPIO_A_7_0
  -------         PROC          READ_GPIO_A_7_0
  -------         DO            
BL51 BANKED LINKER/LOCATER V6.22                                                      07/02/2019  17:10:49  PAGE 131


  D:0007H         SYMBOL        temp
  -------         ENDDO         
  C:D52CH         LINE#         7167
  C:D52CH         LINE#         7168
  C:D52CH         LINE#         7174
  C:D531H         LINE#         7175
  C:D534H         LINE#         7176
  C:D534H         LINE#         7177
  -------         ENDPROC       READ_GPIO_A_7_0
  -------         PROC          _WRITE_GPIO_B_7_4
  D:0004H         SYMBOL        temp
  C:D402H         LINE#         7179
  C:D404H         LINE#         7180
  C:D404H         LINE#         7185
  C:D409H         LINE#         7186
  -------         ENDPROC       _WRITE_GPIO_B_7_4
  -------         PROC          READ_GPIO_B_7_0
  -------         DO            
  D:0007H         SYMBOL        temp
  -------         ENDDO         
  C:D535H         LINE#         7188
  C:D535H         LINE#         7189
  C:D535H         LINE#         7195
  C:D53AH         LINE#         7196
  C:D53DH         LINE#         7197
  C:D53DH         LINE#         7198
  -------         ENDPROC       READ_GPIO_B_7_0
  -------         PROC          _SET_GPIO_C_IN_OUT
  D:0004H         SYMBOL        temp
  C:D40EH         LINE#         7201
  C:D410H         LINE#         7202
  C:D410H         LINE#         7208
  C:D415H         LINE#         7209
  -------         ENDPROC       _SET_GPIO_C_IN_OUT
  -------         PROC          _WRITE_GPIO_C_7_0
  D:0004H         SYMBOL        temp
  C:D41AH         LINE#         7212
  C:D41CH         LINE#         7213
  C:D41CH         LINE#         7218
  C:D421H         LINE#         7219
  -------         ENDPROC       _WRITE_GPIO_C_7_0
  -------         PROC          READ_GPIO_C_7_0
  -------         DO            
  D:0007H         SYMBOL        temp
  -------         ENDDO         
  C:D53EH         LINE#         7221
  C:D53EH         LINE#         7222
  C:D53EH         LINE#         7228
  C:D543H         LINE#         7229
  C:D546H         LINE#         7230
  C:D546H         LINE#         7231
  -------         ENDPROC       READ_GPIO_C_7_0
  -------         PROC          _SET_GPIO_D_IN_OUT
  D:0004H         SYMBOL        temp
  C:D426H         LINE#         7233
  C:D428H         LINE#         7234
  C:D428H         LINE#         7240
BL51 BANKED LINKER/LOCATER V6.22                                                      07/02/2019  17:10:49  PAGE 132


  C:D42DH         LINE#         7241
  -------         ENDPROC       _SET_GPIO_D_IN_OUT
  -------         PROC          _WRITE_GPIO_D_7_0
  D:0004H         SYMBOL        temp
  C:D432H         LINE#         7244
  C:D434H         LINE#         7245
  C:D434H         LINE#         7249
  C:D439H         LINE#         7250
  -------         ENDPROC       _WRITE_GPIO_D_7_0
  -------         PROC          READ_GPIO_D_7_0
  -------         DO            
  D:0007H         SYMBOL        temp
  -------         ENDDO         
  C:D547H         LINE#         7252
  C:D547H         LINE#         7253
  C:D547H         LINE#         7258
  C:D54CH         LINE#         7259
  C:D54FH         LINE#         7260
  C:D54FH         LINE#         7261
  -------         ENDPROC       READ_GPIO_D_7_0
  -------         PROC          _SET_GPIO_E_IN_OUT
  D:0004H         SYMBOL        temp
  C:D43EH         LINE#         7263
  C:D440H         LINE#         7264
  C:D440H         LINE#         7270
  C:D445H         LINE#         7271
  -------         ENDPROC       _SET_GPIO_E_IN_OUT
  -------         PROC          _WRITE_GPIO_E_7_0
  D:0004H         SYMBOL        temp
  C:D44AH         LINE#         7274
  C:D44CH         LINE#         7275
  C:D44CH         LINE#         7280
  C:D451H         LINE#         7281
  -------         ENDPROC       _WRITE_GPIO_E_7_0
  -------         PROC          READ_GPIO_E_7_0
  -------         DO            
  D:0007H         SYMBOL        temp
  -------         ENDDO         
  C:D550H         LINE#         7283
  C:D550H         LINE#         7284
  C:D550H         LINE#         7290
  C:D555H         LINE#         7291
  C:D558H         LINE#         7292
  C:D558H         LINE#         7293
  -------         ENDPROC       READ_GPIO_E_7_0
  -------         PROC          _SET_GPIO_F_IN_OUT
  D:0004H         SYMBOL        temp
  C:D456H         LINE#         7295
  C:D458H         LINE#         7296
  C:D458H         LINE#         7302
  C:D45DH         LINE#         7303
  -------         ENDPROC       _SET_GPIO_F_IN_OUT
  -------         PROC          _WRITE_GPIO_F_7_0
  D:0004H         SYMBOL        temp
  C:D462H         LINE#         7306
  C:D464H         LINE#         7307
  C:D464H         LINE#         7312
BL51 BANKED LINKER/LOCATER V6.22                                                      07/02/2019  17:10:49  PAGE 133


  C:D469H         LINE#         7313
  -------         ENDPROC       _WRITE_GPIO_F_7_0
  -------         PROC          READ_GPIO_F_7_0
  -------         DO            
  D:0007H         SYMBOL        temp
  -------         ENDDO         
  C:D559H         LINE#         7315
  C:D559H         LINE#         7316
  C:D559H         LINE#         7322
  C:D55EH         LINE#         7323
  C:D561H         LINE#         7324
  C:D561H         LINE#         7325
  -------         ENDPROC       READ_GPIO_F_7_0
  C:BE4CH         SYMBOL        L?1054
  -------         PROC          L?1053
  -------         ENDPROC       L?1053
  C:BE4CH         SYMBOL        L?1054
  -------         PROC          _SHOW_STRING
  D:0001H         SYMBOL        str
  C:BE52H         LINE#         7334
  C:BE52H         LINE#         7335
  C:BE52H         LINE#         7336
  C:BE55H         LINE#         7337
  C:BE5AH         LINE#         7338
  C:BE60H         LINE#         7339
  C:BE60H         LINE#         7340
  C:BE63H         LINE#         7341
  C:BE66H         LINE#         7342
  C:BE6DH         LINE#         7343
  C:BE6FH         LINE#         7344
  C:BE72H         LINE#         7346
  -------         ENDPROC       _SHOW_STRING
  -------         PROC          L?1070
  -------         ENDPROC       L?1070
  -------         PROC          _SHOW_PICTURE
  X:022EH         SYMBOL        numbers
  X:0232H         SYMBOL        datap
  -------         DO            
  X:0235H         SYMBOL        i
  -------         ENDDO         
  C:A5CBH         LINE#         7350
  C:A5DCH         LINE#         7351
  C:A5DCH         LINE#         7354
  C:A5E1H         LINE#         7355
  C:A60BH         LINE#         7356
  C:A60BH         LINE#         7357
  C:A633H         LINE#         7358
  C:A65EH         LINE#         7359
  C:A661H         LINE#         7360
  C:A683H         LINE#         7362
  -------         ENDPROC       _SHOW_PICTURE
  -------         PROC          L?1069
  -------         ENDPROC       L?1069
  -------         PROC          _SHOW_PICTURE1
  X:0232H         SYMBOL        numbers
  X:0236H         SYMBOL        datap
  -------         DO            
BL51 BANKED LINKER/LOCATER V6.22                                                      07/02/2019  17:10:49  PAGE 134


  X:0239H         SYMBOL        i
  -------         ENDDO         
  C:A68CH         LINE#         7364
  C:A69DH         LINE#         7365
  C:A69DH         LINE#         7368
  C:A6A2H         LINE#         7369
  C:A6CCH         LINE#         7370
  C:A6CCH         LINE#         7371
  C:A6F6H         LINE#         7372
  C:A71FH         LINE#         7373
  C:A722H         LINE#         7374
  C:A744H         LINE#         7376
  -------         ENDPROC       _SHOW_PICTURE1
  -------         PROC          GRAPHIC_CURSOR_INITIAL
  -------         DO            
  D:0002H         SYMBOL        i
  -------         ENDDO         
  C:A7F5H         LINE#         7378
  C:A7F5H         LINE#         7379
  C:A7F5H         LINE#         7383
  C:A7F8H         LINE#         7384
  C:A7FBH         LINE#         7386
  C:A7FEH         LINE#         7387
  C:A803H         LINE#         7388
  C:A806H         LINE#         7389
  C:A806H         LINE#         7390
  C:A80FH         LINE#         7391
  C:A81CH         LINE#         7393
  C:A81FH         LINE#         7394
  C:A824H         LINE#         7395
  C:A827H         LINE#         7396
  C:A827H         LINE#         7397
  C:A830H         LINE#         7398
  C:A83DH         LINE#         7400
  C:A840H         LINE#         7401
  C:A845H         LINE#         7402
  C:A848H         LINE#         7403
  C:A848H         LINE#         7404
  C:A851H         LINE#         7406
  C:A85EH         LINE#         7408
  C:A861H         LINE#         7409
  C:A866H         LINE#         7410
  C:A869H         LINE#         7411
  C:A869H         LINE#         7412
  C:A872H         LINE#         7414
  C:A87FH         LINE#         7416
  C:A882H         LINE#         7418
  C:A882H         LINE#         7419
  C:A885H         LINE#         7420
  C:A88DH         LINE#         7421
  -------         ENDPROC       GRAPHIC_CURSOR_INITIAL
  -------         PROC          TEXT_CURSOR_INITIAL
  C:C2B2H         LINE#         7425
  C:C2B2H         LINE#         7426
  C:C2B2H         LINE#         7429
  C:C2B5H         LINE#         7431
  C:C2BAH         LINE#         7433
BL51 BANKED LINKER/LOCATER V6.22                                                      07/02/2019  17:10:49  PAGE 135


  C:C2C5H         LINE#         7434
  -------         ENDPROC       TEXT_CURSOR_INITIAL
  -------         PROC          BTE_COMPARE
  -------         DO            
  D:0002H         SYMBOL        i
  X:022AH         SYMBOL        temp
  X:022CH         SYMBOL        im
  -------         ENDDO         
  C:8A23H         LINE#         11
  C:8A23H         LINE#         12
  C:8A23H         LINE#         14
  C:8A2DH         LINE#         17
  C:8A30H         LINE#         18
  C:8A30H         LINE#         19
  C:8A30H         LINE#         20
  C:8A30H         LINE#         22
  C:8A30H         LINE#         23
  C:8A30H         LINE#         24
  C:8A30H         LINE#         25
  C:8A33H         LINE#         27
  C:8A35H         LINE#         28
  C:8A38H         LINE#         29
  C:8A3AH         LINE#         30
  C:8A3DH         LINE#         32
  C:8A40H         LINE#         33
  C:8A48H         LINE#         34
  C:8A4AH         LINE#         35
  C:8A4DH         LINE#         44
  C:8A4DH         LINE#         45
  C:8A4DH         LINE#         46
  C:8A50H         LINE#         47
  C:8A53H         LINE#         48
  C:8A5BH         LINE#         49
  C:8A64H         LINE#         50
  C:8A64H         LINE#         51
  C:8A67H         LINE#         52
  C:8A6AH         LINE#         53
  C:8A74H         LINE#         54
  C:8A7DH         LINE#         58
  C:8A80H         LINE#         59
  C:8A83H         LINE#         60
  C:8A86H         LINE#         61
  C:8A89H         LINE#         64
  C:8A8CH         LINE#         67
  C:8A8FH         LINE#         71
  C:8A92H         LINE#         75
  C:8A97H         LINE#         78
  C:8AA2H         LINE#         79
  C:8AA8H         LINE#         80
  C:8AABH         LINE#         82
  C:8AB4H         LINE#         83
  C:8AB7H         LINE#         84
  C:8ABAH         LINE#         86
  C:8AC5H         LINE#         87
  C:8ACBH         LINE#         88
  C:8ACEH         LINE#         90
  C:8AD7H         LINE#         91
BL51 BANKED LINKER/LOCATER V6.22                                                      07/02/2019  17:10:49  PAGE 136


  C:8ADAH         LINE#         92
  C:8ADDH         LINE#         94
  C:8AE8H         LINE#         95
  C:8AEEH         LINE#         96
  C:8AF1H         LINE#         98
  C:8AFAH         LINE#         99
  C:8AFDH         LINE#         100
  C:8B00H         LINE#         103
  C:8B00H         LINE#         104
  C:8B03H         LINE#         105
  C:8B06H         LINE#         106
  C:8B09H         LINE#         107
  C:8B14H         LINE#         108
  C:8B1DH         LINE#         109
  C:8B28H         LINE#         110
  C:8B31H         LINE#         111
  C:8B3CH         LINE#         112
  C:8B45H         LINE#         113
  C:8B50H         LINE#         114
  C:8B59H         LINE#         115
  C:8B64H         LINE#         116
  C:8B6DH         LINE#         118
  C:8B74H         LINE#         123
  C:8B7FH         LINE#         124
  C:8B8AH         LINE#         126
  C:8B95H         LINE#         127
  C:8B9AH         LINE#         128
  C:8BA5H         LINE#         129
  C:8BA8H         LINE#         131
  C:8BABH         LINE#         132
  C:8BABH         LINE#         133
  C:8BB6H         LINE#         135
  C:8BC4H         LINE#         136
  C:8BC7H         LINE#         137
  C:8BDAH         LINE#         138
  C:8BDDH         LINE#         139
  C:8BE0H         LINE#         140
  C:8BE3H         LINE#         141
  C:8BEEH         LINE#         144
  C:8BEEH         LINE#         145
  C:8BF1H         LINE#         149
  C:8BF1H         LINE#         150
  C:8BF4H         LINE#         151
  C:8BF7H         LINE#         152
  C:8BFAH         LINE#         153
  C:8C05H         LINE#         154
  C:8C0EH         LINE#         156
  C:8C15H         LINE#         164
  C:8C18H         LINE#         166
  C:8C1BH         LINE#         167
  C:8C1BH         LINE#         168
  C:8C1EH         LINE#         169
  C:8C22H         LINE#         171
  C:8C25H         LINE#         172
  C:8C25H         LINE#         173
  C:8C28H         LINE#         174
  C:8C2DH         LINE#         175
BL51 BANKED LINKER/LOCATER V6.22                                                      07/02/2019  17:10:49  PAGE 137


  C:8C30H         LINE#         177
  C:8C35H         LINE#         178
  C:8C3AH         LINE#         179
  C:8C3DH         LINE#         181
  C:8C42H         LINE#         182
  C:8C45H         LINE#         183
  C:8C45H         LINE#         184
  C:8C4AH         LINE#         185
  C:8C4FH         LINE#         186
  C:8C52H         LINE#         187
  C:8C5DH         LINE#         188
  C:8C60H         LINE#         189
  C:8C63H         LINE#         195
  C:8C63H         LINE#         196
  C:8C66H         LINE#         197
  C:8C69H         LINE#         198
  C:8C6CH         LINE#         199
  C:8C77H         LINE#         200
  C:8C80H         LINE#         201
  C:8C87H         LINE#         208
  C:8C8BH         LINE#         209
  C:8C8BH         LINE#         210
  C:8C8BH         LINE#         211
  C:8C8EH         LINE#         213
  C:8C92H         LINE#         214
  C:8C95H         LINE#         215
  C:8C9EH         LINE#         216
  C:8CA1H         LINE#         219
  C:8CA4H         LINE#         220
  C:8CAAH         LINE#         221
  C:8CAAH         LINE#         222
  C:8CADH         LINE#         224
  C:8CB0H         LINE#         225
  C:8CB0H         LINE#         226
  C:8CB3H         LINE#         227
  C:8CB7H         LINE#         229
  C:8CBAH         LINE#         230
  C:8CBAH         LINE#         231
  C:8CBDH         LINE#         232
  C:8CC8H         LINE#         233
  C:8CCBH         LINE#         235
  C:8CD0H         LINE#         236
  C:8CD5H         LINE#         237
  C:8CD8H         LINE#         238
  C:8CDBH         LINE#         243
  C:8CDEH         LINE#         244
  C:8CDEH         LINE#         245
  C:8CE1H         LINE#         246
  C:8CE4H         LINE#         247
  C:8CE7H         LINE#         248
  C:8CF2H         LINE#         249
  C:8CFBH         LINE#         250
  C:8D02H         LINE#         251
  -------         ENDPROC       BTE_COMPARE
  -------         PROC          BTE_COLOR_EXPANSION
  -------         DO            
  X:022AH         SYMBOL        i
BL51 BANKED LINKER/LOCATER V6.22                                                      07/02/2019  17:10:49  PAGE 138


  X:022CH         SYMBOL        j
  X:022EH         SYMBOL        im
  -------         ENDDO         
  C:9604H         LINE#         256
  C:9604H         LINE#         257
  C:9604H         LINE#         258
  C:960EH         LINE#         260
  C:9611H         LINE#         261
  C:9611H         LINE#         262
  C:9611H         LINE#         263
  C:9611H         LINE#         265
  C:9611H         LINE#         266
  C:9611H         LINE#         267
  C:9611H         LINE#         268
  C:9614H         LINE#         270
  C:9614H         LINE#         271
  C:9617H         LINE#         272
  C:9619H         LINE#         273
  C:961CH         LINE#         275
  C:961FH         LINE#         276
  C:9627H         LINE#         277
  C:9629H         LINE#         278
  C:962CH         LINE#         282
  C:962CH         LINE#         283
  C:962CH         LINE#         284
  C:962FH         LINE#         285
  C:9632H         LINE#         286
  C:963AH         LINE#         287
  C:9643H         LINE#         291
  C:9646H         LINE#         292
  C:9649H         LINE#         293
  C:964CH         LINE#         294
  C:964FH         LINE#         297
  C:9652H         LINE#         300
  C:9655H         LINE#         304
  C:9658H         LINE#         308
  C:9658H         LINE#         311
  C:9658H         LINE#         312
  C:9658H         LINE#         313
  C:965BH         LINE#         315
  C:9665H         LINE#         316
  C:9668H         LINE#         317
  C:966BH         LINE#         323
  C:9672H         LINE#         325
  C:9672H         LINE#         326
  C:9679H         LINE#         327
  C:9679H         LINE#         329
  C:967DH         LINE#         330
  C:967DH         LINE#         331
  C:9680H         LINE#         332
  C:9682H         LINE#         333
  C:9685H         LINE#         335
  C:9688H         LINE#         336
  C:968BH         LINE#         338
  C:968EH         LINE#         340
  C:9691H         LINE#         342
  C:9694H         LINE#         343
BL51 BANKED LINKER/LOCATER V6.22                                                      07/02/2019  17:10:49  PAGE 139


  C:9698H         LINE#         344
  C:969BH         LINE#         345
  C:96A6H         LINE#         346
  C:96ADH         LINE#         347
  C:96B4H         LINE#         348
  C:96BBH         LINE#         349
  C:96C0H         LINE#         350
  C:96C5H         LINE#         352
  C:96C8H         LINE#         353
  C:96CDH         LINE#         355
  C:96E3H         LINE#         356
  C:96E3H         LINE#         357
  C:96E3H         LINE#         358
  C:96E9H         LINE#         359
  C:96E9H         LINE#         360
  C:96E9H         LINE#         361
  C:96EBH         LINE#         362
  C:96EBH         LINE#         363
  C:96F1H         LINE#         364
  C:96F1H         LINE#         365
  C:96F1H         LINE#         366
  C:96F3H         LINE#         367
  C:96F3H         LINE#         368
  C:96FCH         LINE#         369
  C:96FFH         LINE#         370
  C:9702H         LINE#         371
  C:9702H         LINE#         372
  C:9702H         LINE#         373
  C:9702H         LINE#         374
  C:9702H         LINE#         377
  C:9702H         LINE#         378
  C:9705H         LINE#         379
  C:9708H         LINE#         380
  C:970BH         LINE#         381
  C:9716H         LINE#         382
  C:971FH         LINE#         386
  C:9726H         LINE#         387
  C:972DH         LINE#         389
  C:9732H         LINE#         390
  C:973DH         LINE#         391
  C:9740H         LINE#         392
  C:9745H         LINE#         394
  C:975BH         LINE#         395
  C:975BH         LINE#         396
  C:975BH         LINE#         397
  C:9761H         LINE#         398
  C:9761H         LINE#         399
  C:9761H         LINE#         400
  C:9763H         LINE#         401
  C:9763H         LINE#         402
  C:9769H         LINE#         403
  C:9769H         LINE#         404
  C:9769H         LINE#         405
  C:976BH         LINE#         406
  C:976BH         LINE#         407
  C:9774H         LINE#         408
  C:9777H         LINE#         409
BL51 BANKED LINKER/LOCATER V6.22                                                      07/02/2019  17:10:49  PAGE 140


  C:977AH         LINE#         410
  C:977AH         LINE#         411
  C:977AH         LINE#         412
  C:977AH         LINE#         413
  C:977AH         LINE#         416
  C:977AH         LINE#         417
  C:977DH         LINE#         418
  C:9780H         LINE#         419
  C:9783H         LINE#         420
  C:978EH         LINE#         421
  C:9797H         LINE#         422
  C:97A2H         LINE#         423
  C:97ABH         LINE#         425
  C:97B2H         LINE#         426
  C:97B9H         LINE#         430
  C:97B9H         LINE#         431
  C:97B9H         LINE#         432
  C:97B9H         LINE#         435
  C:97B9H         LINE#         436
  C:97BCH         LINE#         437
  C:97C4H         LINE#         438
  C:97C6H         LINE#         440
  C:97C9H         LINE#         441
  C:97CEH         LINE#         442
  C:97D1H         LINE#         443
  C:97D4H         LINE#         446
  C:97E2H         LINE#         447
  C:9802H         LINE#         449
  C:9814H         LINE#         451
  -------         ENDPROC       BTE_COLOR_EXPANSION
  -------         PROC          BTE_PATTERN_FILL
  -------         DO            
  X:022AH         SYMBOL        im
  -------         ENDDO         
  C:9DCFH         LINE#         457
  C:9DCFH         LINE#         458
  C:9DD9H         LINE#         460
  C:9DDCH         LINE#         461
  C:9DDCH         LINE#         462
  C:9DDCH         LINE#         463
  C:9DDCH         LINE#         465
  C:9DDCH         LINE#         466
  C:9DDCH         LINE#         467
  C:9DDCH         LINE#         468
  C:9DDFH         LINE#         470
  C:9DDFH         LINE#         471
  C:9DE2H         LINE#         472
  C:9DE4H         LINE#         473
  C:9DE7H         LINE#         475
  C:9DEAH         LINE#         476
  C:9DF2H         LINE#         477
  C:9DF4H         LINE#         478
  C:9DF7H         LINE#         481
  C:9DF7H         LINE#         482
  C:9DF7H         LINE#         483
  C:9DFAH         LINE#         484
  C:9DFDH         LINE#         485
BL51 BANKED LINKER/LOCATER V6.22                                                      07/02/2019  17:10:49  PAGE 141


  C:9E05H         LINE#         486
  C:9E0EH         LINE#         489
  C:9E11H         LINE#         490
  C:9E14H         LINE#         491
  C:9E17H         LINE#         492
  C:9E1AH         LINE#         495
  C:9E1DH         LINE#         498
  C:9E20H         LINE#         502
  C:9E23H         LINE#         506
  C:9E23H         LINE#         509
  C:9E23H         LINE#         510
  C:9E23H         LINE#         511
  C:9E26H         LINE#         513
  C:9E30H         LINE#         514
  C:9E33H         LINE#         515
  C:9E36H         LINE#         519
  C:9E39H         LINE#         520
  C:9E40H         LINE#         521
  C:9E44H         LINE#         522
  C:9E47H         LINE#         523
  C:9E4DH         LINE#         524
  C:9E50H         LINE#         525
  C:9E59H         LINE#         527
  C:9E59H         LINE#         528
  C:9E59H         LINE#         529
  C:9E59H         LINE#         530
  C:9E5CH         LINE#         533
  C:9E5FH         LINE#         534
  C:9E6AH         LINE#         535
  C:9E71H         LINE#         537
  C:9E74H         LINE#         538
  C:9E74H         LINE#         539
  C:9E77H         LINE#         541
  C:9E7AH         LINE#         542
  C:9E7AH         LINE#         543
  C:9E7DH         LINE#         545
  C:9E82H         LINE#         546
  C:9E87H         LINE#         548
  C:9E8AH         LINE#         549
  C:9E95H         LINE#         550
  C:9EA0H         LINE#         552
  C:9EA3H         LINE#         553
  C:9EA6H         LINE#         555
  C:9EA6H         LINE#         556
  C:9EA9H         LINE#         557
  C:9EACH         LINE#         558
  C:9EAFH         LINE#         559
  C:9EBAH         LINE#         560
  C:9EC3H         LINE#         562
  C:9ECAH         LINE#         563
  C:9ECDH         LINE#         564
  C:9ED2H         LINE#         565
  C:9EDDH         LINE#         566
  C:9EE2H         LINE#         568
  C:9EE5H         LINE#         569
  C:9EE8H         LINE#         571
  C:9EE8H         LINE#         572
BL51 BANKED LINKER/LOCATER V6.22                                                      07/02/2019  17:10:49  PAGE 142


  C:9EEBH         LINE#         573
  C:9EEEH         LINE#         574
  C:9EF1H         LINE#         575
  C:9EFCH         LINE#         576
  C:9F05H         LINE#         578
  C:9F05H         LINE#         579
  C:9F08H         LINE#         580
  C:9F0BH         LINE#         581
  C:9F0EH         LINE#         582
  C:9F19H         LINE#         583
  C:9F22H         LINE#         584
  C:9F29H         LINE#         585
  -------         ENDPROC       BTE_PATTERN_FILL
  -------         PROC          PIP_DEMO
  -------         DO            
  X:022AH         SYMBOL        i
  X:022EH         SYMBOL        im
  -------         ENDDO         
  C:7665H         LINE#         589
  C:7665H         LINE#         590
  C:7665H         LINE#         591
  C:766FH         LINE#         593
  C:7672H         LINE#         594
  C:7672H         LINE#         595
  C:7672H         LINE#         596
  C:7672H         LINE#         598
  C:7672H         LINE#         599
  C:7672H         LINE#         600
  C:7672H         LINE#         601
  C:7675H         LINE#         603
  C:7677H         LINE#         604
  C:767AH         LINE#         605
  C:767CH         LINE#         606
  C:767FH         LINE#         608
  C:7682H         LINE#         609
  C:768AH         LINE#         610
  C:768CH         LINE#         611
  C:768FH         LINE#         613
  C:768FH         LINE#         614
  C:768FH         LINE#         615
  C:7692H         LINE#         616
  C:7695H         LINE#         617
  C:769DH         LINE#         618
  C:76A6H         LINE#         621
  C:76A9H         LINE#         622
  C:76B0H         LINE#         623
  C:76B4H         LINE#         624
  C:76B4H         LINE#         625
  C:76B7H         LINE#         626
  C:76B7H         LINE#         627
  C:76BAH         LINE#         628
  C:76BFH         LINE#         629
  C:76E5H         LINE#         630
  C:76E5H         LINE#         631
  C:76EAH         LINE#         632
  C:76EFH         LINE#         634
  C:7710H         LINE#         635
BL51 BANKED LINKER/LOCATER V6.22                                                      07/02/2019  17:10:49  PAGE 143


  C:7713H         LINE#         638
  C:771AH         LINE#         639
  C:771CH         LINE#         640
  C:771FH         LINE#         641
  C:7722H         LINE#         642
  C:772DH         LINE#         643
  C:7736H         LINE#         648
  C:773AH         LINE#         649
  C:773AH         LINE#         650
  C:773DH         LINE#         651
  C:773DH         LINE#         652
  C:7740H         LINE#         653
  C:7745H         LINE#         654
  C:776BH         LINE#         655
  C:776BH         LINE#         656
  C:7770H         LINE#         657
  C:7775H         LINE#         659
  C:7796H         LINE#         660
  C:7799H         LINE#         662
  C:77A0H         LINE#         663
  C:77A7H         LINE#         664
  C:77AAH         LINE#         665
  C:77ADH         LINE#         666
  C:77B8H         LINE#         667
  C:77C1H         LINE#         671
  C:77C4H         LINE#         672
  C:77C7H         LINE#         673
  C:77CBH         LINE#         674
  C:77CBH         LINE#         675
  C:77CBH         LINE#         676
  C:77CEH         LINE#         677
  C:77D9H         LINE#         678
  C:77DCH         LINE#         679
  C:77E3H         LINE#         682
  C:77E6H         LINE#         683
  C:77E9H         LINE#         684
  C:77EDH         LINE#         685
  C:77EDH         LINE#         686
  C:77EDH         LINE#         687
  C:77F0H         LINE#         688
  C:77FBH         LINE#         689
  C:77FEH         LINE#         690
  C:7805H         LINE#         693
  C:7829H         LINE#         694
  C:7829H         LINE#         695
  C:782CH         LINE#         696
  C:7844H         LINE#         698
  C:7847H         LINE#         699
  C:784AH         LINE#         700
  C:784DH         LINE#         702
  C:7854H         LINE#         703
  C:7876H         LINE#         705
  C:789AH         LINE#         706
  C:789AH         LINE#         707
  C:789DH         LINE#         708
  C:789DH         LINE#         710
  C:78A0H         LINE#         711
BL51 BANKED LINKER/LOCATER V6.22                                                      07/02/2019  17:10:49  PAGE 144


  C:78A3H         LINE#         712
  C:78BFH         LINE#         714
  C:78C6H         LINE#         715
  C:78E8H         LINE#         717
  C:78EFH         LINE#         721
  C:78F2H         LINE#         722
  C:78F5H         LINE#         723
  C:78F8H         LINE#         724
  C:78FBH         LINE#         727
  C:78FEH         LINE#         730
  C:7901H         LINE#         734
  C:7904H         LINE#         738
  C:7909H         LINE#         740
  C:790DH         LINE#         741
  C:790DH         LINE#         743
  C:7910H         LINE#         744
  C:7916H         LINE#         745
  C:7919H         LINE#         746
  C:7922H         LINE#         747
  C:7925H         LINE#         748
  C:7928H         LINE#         750
  C:792CH         LINE#         751
  C:792CH         LINE#         753
  C:792FH         LINE#         754
  C:7935H         LINE#         755
  C:7938H         LINE#         756
  C:7941H         LINE#         757
  C:7944H         LINE#         758
  C:7947H         LINE#         761
  C:796BH         LINE#         762
  C:796BH         LINE#         763
  C:796EH         LINE#         764
  C:7986H         LINE#         766
  C:7989H         LINE#         767
  C:798CH         LINE#         768
  C:798FH         LINE#         770
  C:7996H         LINE#         771
  C:79B8H         LINE#         773
  C:79DCH         LINE#         774
  C:79DCH         LINE#         775
  C:79DFH         LINE#         776
  C:79DFH         LINE#         778
  C:79E2H         LINE#         779
  C:79E5H         LINE#         780
  C:7A01H         LINE#         782
  C:7A08H         LINE#         783
  C:7A2AH         LINE#         785
  C:7A31H         LINE#         786
  C:7A34H         LINE#         788
  C:7A37H         LINE#         789
  -------         ENDPROC       PIP_DEMO
  -------         PROC          APP_DEMO_WAVEFORM
  -------         DO            
  X:022AH         SYMBOL        i
  X:022CH         SYMBOL        h
  X:022EH         SYMBOL        point1y
  X:0230H         SYMBOL        point2y
BL51 BANKED LINKER/LOCATER V6.22                                                      07/02/2019  17:10:49  PAGE 145


  X:0232H         SYMBOL        point21y
  X:0234H         SYMBOL        point22y
  X:0236H         SYMBOL        point31y
  X:0238H         SYMBOL        point32y
  -------         ENDDO         
  C:8734H         LINE#         794
  C:8734H         LINE#         795
  C:8734H         LINE#         801
  C:873BH         LINE#         802
  C:8741H         LINE#         803
  C:8747H         LINE#         809
  C:874AH         LINE#         810
  C:874AH         LINE#         811
  C:874AH         LINE#         812
  C:874AH         LINE#         814
  C:874AH         LINE#         815
  C:874AH         LINE#         816
  C:874AH         LINE#         817
  C:874DH         LINE#         819
  C:8751H         LINE#         820
  C:8754H         LINE#         821
  C:8756H         LINE#         822
  C:8759H         LINE#         824
  C:875CH         LINE#         825
  C:8764H         LINE#         826
  C:8766H         LINE#         827
  C:8769H         LINE#         830
  C:8769H         LINE#         831
  C:8769H         LINE#         832
  C:876CH         LINE#         833
  C:876FH         LINE#         834
  C:8777H         LINE#         835
  C:8780H         LINE#         838
  C:8787H         LINE#         839
  C:878EH         LINE#         840
  C:8791H         LINE#         841
  C:8794H         LINE#         842
  C:879EH         LINE#         843
  C:87A7H         LINE#         846
  C:87B2H         LINE#         850
  C:87B2H         LINE#         851
  C:87B2H         LINE#         852
  C:87B2H         LINE#         853
  C:87B5H         LINE#         855
  C:87CBH         LINE#         856
  C:87CBH         LINE#         857
  C:87D2H         LINE#         858
  C:87DDH         LINE#         859
  C:87EBH         LINE#         860
  C:87EEH         LINE#         861
  C:87FEH         LINE#         863
  C:8814H         LINE#         864
  C:8814H         LINE#         865
  C:881BH         LINE#         866
  C:8826H         LINE#         867
  C:882DH         LINE#         868
  C:8830H         LINE#         869
BL51 BANKED LINKER/LOCATER V6.22                                                      07/02/2019  17:10:49  PAGE 146


  C:8840H         LINE#         872
  C:8843H         LINE#         873
  C:8843H         LINE#         874
  C:8843H         LINE#         875
  C:8846H         LINE#         882
  C:8849H         LINE#         883
  C:8849H         LINE#         884
  C:884CH         LINE#         885
  C:8857H         LINE#         886
  C:885FH         LINE#         889
  C:8862H         LINE#         890
  C:8867H         LINE#         891
  C:886AH         LINE#         892
  C:886DH         LINE#         895
  C:8870H         LINE#         897
  C:8877H         LINE#         898
  C:8877H         LINE#         899
  C:8891H         LINE#         900
  C:8891H         LINE#         902
  C:8897H         LINE#         904
  C:88ACH         LINE#         905
  C:88B7H         LINE#         906
  C:88BAH         LINE#         907
  C:88BDH         LINE#         910
  C:88CCH         LINE#         911
  C:88DEH         LINE#         913
  C:88EDH         LINE#         914
  C:88FFH         LINE#         916
  C:890EH         LINE#         917
  C:8920H         LINE#         919
  C:8927H         LINE#         920
  C:8946H         LINE#         921
  C:8960H         LINE#         922
  C:8963H         LINE#         924
  C:896AH         LINE#         925
  C:8989H         LINE#         926
  C:89A4H         LINE#         927
  C:89A7H         LINE#         929
  C:89AEH         LINE#         930
  C:89CDH         LINE#         931
  C:89ECH         LINE#         932
  C:89EFH         LINE#         935
  C:8A00H         LINE#         937
  C:8A0EH         LINE#         938
  C:8A0EH         LINE#         939
  C:8A20H         LINE#         941
  -------         ENDPROC       APP_DEMO_WAVEFORM
  -------         PROC          APP_DEMO_SCROLLING_TEXT
  -------         DO            
  X:022AH         SYMBOL        i
  -------         ENDDO         
  C:8D05H         LINE#         946
  C:8D05H         LINE#         947
  C:8D05H         LINE#         952
  C:8D08H         LINE#         953
  C:8D08H         LINE#         954
  C:8D08H         LINE#         955
BL51 BANKED LINKER/LOCATER V6.22                                                      07/02/2019  17:10:49  PAGE 147


  C:8D0BH         LINE#         957
  C:8D11H         LINE#         958
  C:8D11H         LINE#         959
  C:8D11H         LINE#         960
  C:8D14H         LINE#         962
  C:8D14H         LINE#         963
  C:8D17H         LINE#         964
  C:8D19H         LINE#         965
  C:8D1CH         LINE#         967
  C:8D1FH         LINE#         968
  C:8D27H         LINE#         969
  C:8D29H         LINE#         970
  C:8D2CH         LINE#         975
  C:8D2CH         LINE#         976
  C:8D2CH         LINE#         977
  C:8D2FH         LINE#         978
  C:8D32H         LINE#         979
  C:8D3AH         LINE#         980
  C:8D43H         LINE#         981
  C:8D43H         LINE#         982
  C:8D43H         LINE#         983
  C:8D46H         LINE#         984
  C:8D50H         LINE#         985
  C:8D59H         LINE#         990
  C:8D5CH         LINE#         991
  C:8D5FH         LINE#         992
  C:8D62H         LINE#         993
  C:8D65H         LINE#         996
  C:8D68H         LINE#         999
  C:8D6BH         LINE#         1003
  C:8D6EH         LINE#         1007
  C:8D73H         LINE#         1010
  C:8D7DH         LINE#         1011
  C:8D81H         LINE#         1012
  C:8D84H         LINE#         1013
  C:8D87H         LINE#         1014
  C:8D8AH         LINE#         1015
  C:8D8DH         LINE#         1019
  C:8D90H         LINE#         1020
  C:8D90H         LINE#         1021
  C:8D90H         LINE#         1022
  C:8D93H         LINE#         1029
  C:8D96H         LINE#         1030
  C:8D96H         LINE#         1031
  C:8D99H         LINE#         1032
  C:8D99H         LINE#         1033
  C:8D99H         LINE#         1035
  C:8D9CH         LINE#         1036
  C:8DA1H         LINE#         1037
  C:8DA4H         LINE#         1038
  C:8DA7H         LINE#         1042
  C:8DADH         LINE#         1043
  C:8DADH         LINE#         1044
  C:8DADH         LINE#         1045
  C:8DB0H         LINE#         1047
  C:8DB4H         LINE#         1048
  C:8DB4H         LINE#         1049
BL51 BANKED LINKER/LOCATER V6.22                                                      07/02/2019  17:10:49  PAGE 148


  C:8DB4H         LINE#         1050
  C:8DB7H         LINE#         1052
  C:8DBEH         LINE#         1053
  C:8DC5H         LINE#         1054
  C:8DC8H         LINE#         1055
  C:8DCBH         LINE#         1056
  C:8DD3H         LINE#         1057
  C:8DD6H         LINE#         1059
  C:8DDDH         LINE#         1060
  C:8DE4H         LINE#         1061
  C:8DE7H         LINE#         1062
  C:8DEAH         LINE#         1063
  C:8DF1H         LINE#         1064
  C:8DF8H         LINE#         1065
  C:8DFDH         LINE#         1066
  C:8E00H         LINE#         1067
  C:8E07H         LINE#         1068
  C:8E0EH         LINE#         1069
  C:8E13H         LINE#         1070
  C:8E16H         LINE#         1076
  C:8E2FH         LINE#         1077
  C:8E2FH         LINE#         1078
  C:8E35H         LINE#         1079
  C:8E35H         LINE#         1080
  C:8E35H         LINE#         1081
  C:8E38H         LINE#         1083
  C:8E38H         LINE#         1084
  C:8E3BH         LINE#         1085
  C:8E3DH         LINE#         1086
  C:8E40H         LINE#         1088
  C:8E4AH         LINE#         1089
  C:8E51H         LINE#         1090
  C:8E54H         LINE#         1091
  C:8E57H         LINE#         1092
  C:8E5AH         LINE#         1093
  C:8E5DH         LINE#         1097
  C:8E61H         LINE#         1098
  C:8E61H         LINE#         1099
  C:8E64H         LINE#         1107
  C:8E6AH         LINE#         1108
  C:8E6DH         LINE#         1109
  C:8E85H         LINE#         1110
  C:8E94H         LINE#         1112
  C:8E9BH         LINE#         1114
  C:8EA0H         LINE#         1115
  C:8EA5H         LINE#         1116
  C:8EA8H         LINE#         1117
  C:8EABH         LINE#         1127
  C:8EABH         LINE#         1128
  C:8EABH         LINE#         1129
  C:8EABH         LINE#         1132
  C:8EABH         LINE#         1133
  C:8EAEH         LINE#         1134
  C:8EAEH         LINE#         1135
  C:8EAEH         LINE#         1137
  C:8EB1H         LINE#         1138
  C:8EB6H         LINE#         1139
BL51 BANKED LINKER/LOCATER V6.22                                                      07/02/2019  17:10:49  PAGE 149


  C:8EB9H         LINE#         1140
  C:8EBCH         LINE#         1141
  C:8ECDH         LINE#         1143
  C:8EE6H         LINE#         1144
  C:8EE6H         LINE#         1145
  C:8EECH         LINE#         1146
  C:8EECH         LINE#         1147
  C:8EECH         LINE#         1148
  C:8EEFH         LINE#         1150
  C:8EEFH         LINE#         1151
  C:8EF2H         LINE#         1152
  C:8EF4H         LINE#         1153
  C:8EF7H         LINE#         1155
  C:8F01H         LINE#         1156
  C:8F08H         LINE#         1157
  C:8F0BH         LINE#         1158
  C:8F15H         LINE#         1159
  C:8F18H         LINE#         1160
  C:8F1BH         LINE#         1164
  C:8F26H         LINE#         1165
  C:8F2DH         LINE#         1166
  C:8F3BH         LINE#         1174
  C:8F41H         LINE#         1175
  C:8F44H         LINE#         1176
  C:8F4EH         LINE#         1177
  C:8F66H         LINE#         1179
  C:8F6DH         LINE#         1181
  C:8F72H         LINE#         1182
  C:8F77H         LINE#         1183
  C:8F7AH         LINE#         1184
  C:8F7DH         LINE#         1194
  C:8F7DH         LINE#         1195
  C:8F7DH         LINE#         1196
  C:8F7DH         LINE#         1199
  C:8F7DH         LINE#         1200
  C:8F80H         LINE#         1201
  C:8F80H         LINE#         1202
  C:8F80H         LINE#         1204
  C:8F83H         LINE#         1205
  C:8F88H         LINE#         1206
  C:8F8BH         LINE#         1207
  C:8F8EH         LINE#         1208
  C:8F9FH         LINE#         1210
  -------         ENDPROC       APP_DEMO_SCROLLING_TEXT
  -------         PROC          APP_DEMO_MULTI_FRAME_BUFFER
  -------         DO            
  X:022AH         SYMBOL        i
  X:022CH         SYMBOL        j
  X:022EH         SYMBOL        im
  -------         ENDDO         
  C:7A3AH         LINE#         1216
  C:7A3AH         LINE#         1217
  C:7A3AH         LINE#         1218
  C:7A44H         LINE#         1219
  C:7A47H         LINE#         1220
  C:7A47H         LINE#         1221
  C:7A47H         LINE#         1222
BL51 BANKED LINKER/LOCATER V6.22                                                      07/02/2019  17:10:49  PAGE 150


  C:7A4AH         LINE#         1225
  C:7A4DH         LINE#         1226
  C:7A50H         LINE#         1227
  C:7A53H         LINE#         1228
  C:7A56H         LINE#         1231
  C:7A59H         LINE#         1234
  C:7A5CH         LINE#         1238
  C:7A5FH         LINE#         1242
  C:7A64H         LINE#         1244
  C:7A66H         LINE#         1245
  C:7A66H         LINE#         1246
  C:7A69H         LINE#         1249
  C:7A70H         LINE#         1250
  C:7A70H         LINE#         1252
  C:7A9FH         LINE#         1253
  C:7A9FH         LINE#         1254
  C:7A9FH         LINE#         1255
  C:7AA2H         LINE#         1257
  C:7AA2H         LINE#         1258
  C:7AA5H         LINE#         1259
  C:7AB0H         LINE#         1260
  C:7AB3H         LINE#         1262
  C:7AB6H         LINE#         1263
  C:7ABEH         LINE#         1264
  C:7AC0H         LINE#         1265
  C:7AC3H         LINE#         1268
  C:7AC3H         LINE#         1269
  C:7AC3H         LINE#         1270
  C:7AC6H         LINE#         1271
  C:7AC9H         LINE#         1272
  C:7AD1H         LINE#         1273
  C:7ADAH         LINE#         1279
  C:7B06H         LINE#         1280
  C:7B09H         LINE#         1281
  C:7B0CH         LINE#         1283
  C:7B13H         LINE#         1284
  C:7B13H         LINE#         1285
  C:7B16H         LINE#         1286
  C:7B48H         LINE#         1287
  C:7B68H         LINE#         1292
  C:7B6BH         LINE#         1293
  C:7B6EH         LINE#         1294
  C:7B72H         LINE#         1295
  C:7B72H         LINE#         1296
  C:7B75H         LINE#         1297
  C:7B79H         LINE#         1298
  C:7B7CH         LINE#         1299
  C:7B87H         LINE#         1301
  C:7BAEH         LINE#         1302
  C:7BAEH         LINE#         1303
  C:7BB1H         LINE#         1305
  C:7BB7H         LINE#         1306
  C:7BD4H         LINE#         1307
  C:7BF9H         LINE#         1308
  C:7BFCH         LINE#         1310
  C:7BFFH         LINE#         1311
  C:7C1DH         LINE#         1312
BL51 BANKED LINKER/LOCATER V6.22                                                      07/02/2019  17:10:49  PAGE 151


  C:7C43H         LINE#         1313
  C:7C46H         LINE#         1316
  C:7C6BH         LINE#         1317
  C:7C74H         LINE#         1318
  C:7C77H         LINE#         1319
  C:7C7AH         LINE#         1322
  C:7C7AH         LINE#         1323
  C:7C7AH         LINE#         1324
  C:7C7DH         LINE#         1325
  C:7C80H         LINE#         1326
  C:7C92H         LINE#         1327
  C:7C9BH         LINE#         1329
  C:7CBDH         LINE#         1332
  C:7CC4H         LINE#         1333
  C:7CC4H         LINE#         1334
  C:7CD9H         LINE#         1335
  C:7CD9H         LINE#         1336
  C:7CF0H         LINE#         1337
  C:7CF3H         LINE#         1338
  C:7D03H         LINE#         1339
  C:7D0AH         LINE#         1340
  C:7D27H         LINE#         1342
  C:7D30H         LINE#         1343
  C:7D30H         LINE#         1344
  C:7D45H         LINE#         1345
  C:7D45H         LINE#         1346
  C:7D5BH         LINE#         1347
  C:7D62H         LINE#         1348
  C:7D72H         LINE#         1350
  C:7D8DH         LINE#         1352
  C:7D94H         LINE#         1354
  -------         ENDPROC       APP_DEMO_MULTI_FRAME_BUFFER
  -------         PROC          APP_DEMO_SLIDE_FRAME_BUFFER
  -------         DO            
  X:022AH         SYMBOL        im
  X:022EH         SYMBOL        i
  X:0230H         SYMBOL        j
  -------         ENDDO         
  C:9C00H         LINE#         1359
  C:9C00H         LINE#         1360
  C:9C0AH         LINE#         1363
  C:9C0DH         LINE#         1364
  C:9C0DH         LINE#         1365
  C:9C0DH         LINE#         1366
  C:9C10H         LINE#         1369
  C:9C13H         LINE#         1370
  C:9C16H         LINE#         1371
  C:9C19H         LINE#         1372
  C:9C1CH         LINE#         1375
  C:9C1FH         LINE#         1378
  C:9C22H         LINE#         1382
  C:9C25H         LINE#         1386
  C:9C2AH         LINE#         1388
  C:9C2DH         LINE#         1389
  C:9C35H         LINE#         1390
  C:9C38H         LINE#         1396
  C:9C3BH         LINE#         1397
BL51 BANKED LINKER/LOCATER V6.22                                                      07/02/2019  17:10:49  PAGE 152


  C:9C3EH         LINE#         1398
  C:9C42H         LINE#         1399
  C:9C42H         LINE#         1400
  C:9C45H         LINE#         1401
  C:9C47H         LINE#         1402
  C:9C4AH         LINE#         1403
  C:9C55H         LINE#         1405
  C:9C59H         LINE#         1407
  C:9C59H         LINE#         1408
  C:9C5CH         LINE#         1409
  C:9C62H         LINE#         1410
  C:9C65H         LINE#         1412
  C:9C68H         LINE#         1413
  C:9C71H         LINE#         1414
  C:9C74H         LINE#         1415
  C:9C77H         LINE#         1417
  C:9C80H         LINE#         1418
  C:9C86H         LINE#         1419
  C:9C89H         LINE#         1420
  C:9C8CH         LINE#         1422
  C:9C96H         LINE#         1423
  C:9C9AH         LINE#         1424
  C:9C9DH         LINE#         1425
  C:9CA0H         LINE#         1427
  C:9CABH         LINE#         1428
  C:9CAFH         LINE#         1429
  C:9CB2H         LINE#         1430
  C:9CB5H         LINE#         1433
  C:9CB5H         LINE#         1434
  C:9CB5H         LINE#         1435
  C:9CB8H         LINE#         1436
  C:9CBBH         LINE#         1437
  C:9CC5H         LINE#         1438
  C:9CCEH         LINE#         1443
  C:9CE5H         LINE#         1444
  C:9CE5H         LINE#         1445
  C:9CEBH         LINE#         1446
  C:9CF2H         LINE#         1447
  C:9D02H         LINE#         1448
  C:9D05H         LINE#         1450
  C:9D1CH         LINE#         1451
  C:9D1CH         LINE#         1452
  C:9D23H         LINE#         1453
  C:9D2AH         LINE#         1454
  C:9D3AH         LINE#         1455
  C:9D3DH         LINE#         1458
  C:9D56H         LINE#         1459
  C:9D56H         LINE#         1460
  C:9D5DH         LINE#         1461
  C:9D64H         LINE#         1462
  C:9D74H         LINE#         1463
  C:9D7EH         LINE#         1464
  C:9D81H         LINE#         1465
  C:9D88H         LINE#         1467
  C:9DA2H         LINE#         1468
  C:9DA2H         LINE#         1469
  C:9DA8H         LINE#         1470
BL51 BANKED LINKER/LOCATER V6.22                                                      07/02/2019  17:10:49  PAGE 153


  C:9DAFH         LINE#         1471
  C:9DBFH         LINE#         1472
  C:9DC2H         LINE#         1473
  C:9DC9H         LINE#         1474
  C:9DCCH         LINE#         1476
  -------         ENDPROC       APP_DEMO_SLIDE_FRAME_BUFFER
  -------         PROC          APP_DEMO_ALPHA_BLENDING
  -------         DO            
  X:022AH         SYMBOL        im
  X:022EH         SYMBOL        i
  X:0230H         SYMBOL        j
  -------         ENDDO         
  C:9A1CH         LINE#         1480
  C:9A1CH         LINE#         1481
  C:9A26H         LINE#         1484
  C:9A29H         LINE#         1485
  C:9A29H         LINE#         1486
  C:9A29H         LINE#         1487
  C:9A29H         LINE#         1489
  C:9A29H         LINE#         1490
  C:9A29H         LINE#         1491
  C:9A29H         LINE#         1492
  C:9A2CH         LINE#         1494
  C:9A2CH         LINE#         1495
  C:9A2FH         LINE#         1496
  C:9A31H         LINE#         1497
  C:9A34H         LINE#         1499
  C:9A37H         LINE#         1500
  C:9A3FH         LINE#         1501
  C:9A41H         LINE#         1502
  C:9A44H         LINE#         1505
  C:9A44H         LINE#         1506
  C:9A44H         LINE#         1507
  C:9A47H         LINE#         1508
  C:9A4AH         LINE#         1509
  C:9A52H         LINE#         1510
  C:9A5BH         LINE#         1511
  C:9A5BH         LINE#         1512
  C:9A5BH         LINE#         1513
  C:9A5EH         LINE#         1514
  C:9A68H         LINE#         1515
  C:9A71H         LINE#         1518
  C:9A74H         LINE#         1519
  C:9A77H         LINE#         1520
  C:9A7AH         LINE#         1521
  C:9A7DH         LINE#         1524
  C:9A80H         LINE#         1527
  C:9A83H         LINE#         1531
  C:9A86H         LINE#         1535
  C:9A8BH         LINE#         1539
  C:9A96H         LINE#         1540
  C:9A96H         LINE#         1541
  C:9A96H         LINE#         1542
  C:9A96H         LINE#         1543
  C:9A99H         LINE#         1546
  C:9A99H         LINE#         1547
  C:9A99H         LINE#         1548
BL51 BANKED LINKER/LOCATER V6.22                                                      07/02/2019  17:10:49  PAGE 154


  C:9A9CH         LINE#         1549
  C:9A9FH         LINE#         1550
  C:9AA2H         LINE#         1551
  C:9AA5H         LINE#         1555
  C:9AB0H         LINE#         1556
  C:9AB0H         LINE#         1557
  C:9AB0H         LINE#         1558
  C:9AB0H         LINE#         1559
  C:9AB3H         LINE#         1562
  C:9AB3H         LINE#         1563
  C:9AB3H         LINE#         1564
  C:9AB6H         LINE#         1565
  C:9AC0H         LINE#         1566
  C:9AC3H         LINE#         1567
  C:9AC6H         LINE#         1570
  C:9AC9H         LINE#         1571
  C:9AC9H         LINE#         1572
  C:9ACCH         LINE#         1573
  C:9AD4H         LINE#         1574
  C:9ADFH         LINE#         1576
  C:9AE2H         LINE#         1577
  C:9AE2H         LINE#         1578
  C:9AE2H         LINE#         1579
  C:9AE5H         LINE#         1581
  C:9AE8H         LINE#         1582
  C:9AECH         LINE#         1583
  C:9AEFH         LINE#         1584
  C:9AF2H         LINE#         1587
  C:9AF7H         LINE#         1588
  C:9AFCH         LINE#         1590
  C:9B15H         LINE#         1591
  C:9B15H         LINE#         1593
  C:9B20H         LINE#         1594
  C:9B20H         LINE#         1595
  C:9B20H         LINE#         1596
  C:9B23H         LINE#         1597
  C:9B47H         LINE#         1598
  C:9B4AH         LINE#         1599
  C:9B4DH         LINE#         1601
  C:9B58H         LINE#         1602
  C:9B82H         LINE#         1603
  C:9B85H         LINE#         1604
  C:9B88H         LINE#         1606
  C:9B9FH         LINE#         1607
  C:9B9FH         LINE#         1608
  C:9BA2H         LINE#         1609
  C:9BA5H         LINE#         1610
  C:9BACH         LINE#         1611
  C:9BB9H         LINE#         1613
  C:9BD2H         LINE#         1614
  C:9BD2H         LINE#         1615
  C:9BD5H         LINE#         1616
  C:9BD8H         LINE#         1617
  C:9BDFH         LINE#         1618
  C:9BECH         LINE#         1619
  C:9BFDH         LINE#         1621
  -------         ENDPROC       APP_DEMO_ALPHA_BLENDING
BL51 BANKED LINKER/LOCATER V6.22                                                      07/02/2019  17:10:49  PAGE 155


  -------         PROC          MONO_DEMO
  C:B220H         LINE#         1625
  C:B220H         LINE#         1626
  C:B220H         LINE#         1628
  C:B223H         LINE#         1629
  C:B223H         LINE#         1630
  C:B223H         LINE#         1631
  C:B223H         LINE#         1633
  C:B223H         LINE#         1634
  C:B223H         LINE#         1635
  C:B223H         LINE#         1636
  C:B226H         LINE#         1643
  C:B22AH         LINE#         1644
  C:B22AH         LINE#         1645
  C:B22AH         LINE#         1646
  C:B22DH         LINE#         1647
  C:B230H         LINE#         1648
  C:B234H         LINE#         1649
  C:B234H         LINE#         1650
  C:B234H         LINE#         1651
  C:B237H         LINE#         1652
  C:B23AH         LINE#         1653
  C:B23EH         LINE#         1654
  C:B23EH         LINE#         1655
  C:B23EH         LINE#         1656
  C:B241H         LINE#         1657
  C:B244H         LINE#         1658
  C:B248H         LINE#         1659
  C:B248H         LINE#         1660
  C:B248H         LINE#         1661
  C:B24BH         LINE#         1662
  C:B24EH         LINE#         1663
  C:B252H         LINE#         1664
  C:B252H         LINE#         1665
  C:B252H         LINE#         1666
  C:B255H         LINE#         1667
  C:B258H         LINE#         1668
  C:B25CH         LINE#         1669
  C:B25CH         LINE#         1670
  C:B25CH         LINE#         1671
  C:B25FH         LINE#         1672
  C:B262H         LINE#         1673
  C:B264H         LINE#         1674
  C:B264H         LINE#         1675
  C:B264H         LINE#         1676
  C:B267H         LINE#         1677
  C:B26AH         LINE#         1678
  C:B26AH         LINE#         1679
  C:B26AH         LINE#         1680
  C:B26AH         LINE#         1681
  C:B26DH         LINE#         1682
  -------         ENDPROC       MONO_DEMO
  -------         PROC          TEXT_DEMO
  -------         DO            
  X:022AH         SYMBOL        i
  X:022CH         SYMBOL        j
  -------         ENDDO         
BL51 BANKED LINKER/LOCATER V6.22                                                      07/02/2019  17:10:49  PAGE 156


  C:80D7H         LINE#         1686
  C:80D7H         LINE#         1687
  C:80D7H         LINE#         1689
  C:80DAH         LINE#         1690
  C:80DAH         LINE#         1691
  C:80DAH         LINE#         1692
  C:80DAH         LINE#         1694
  C:80DAH         LINE#         1695
  C:80DAH         LINE#         1696
  C:80DAH         LINE#         1697
  C:80DDH         LINE#         1705
  C:80DFH         LINE#         1706
  C:80E2H         LINE#         1707
  C:80E4H         LINE#         1708
  C:80E7H         LINE#         1710
  C:80EAH         LINE#         1711
  C:80F2H         LINE#         1712
  C:80F4H         LINE#         1713
  C:80F7H         LINE#         1716
  C:8117H         LINE#         1717
  C:8117H         LINE#         1718
  C:8117H         LINE#         1719
  C:811AH         LINE#         1720
  C:811DH         LINE#         1721
  C:8122H         LINE#         1722
  C:812BH         LINE#         1723
  C:812FH         LINE#         1724
  C:8132H         LINE#         1725
  C:8137H         LINE#         1726
  C:8140H         LINE#         1728
  C:8143H         LINE#         1731
  C:8145H         LINE#         1732
  C:8145H         LINE#         1733
  C:8145H         LINE#         1734
  C:8148H         LINE#         1737
  C:8148H         LINE#         1738
  C:814BH         LINE#         1739
  C:814EH         LINE#         1740
  C:8151H         LINE#         1741
  C:8156H         LINE#         1742
  C:815FH         LINE#         1744
  C:8162H         LINE#         1745
  C:8167H         LINE#         1746
  C:8170H         LINE#         1748
  C:8173H         LINE#         1749
  C:8178H         LINE#         1750
  C:8181H         LINE#         1766
  C:8184H         LINE#         1767
  C:8187H         LINE#         1768
  C:818AH         LINE#         1769
  C:818FH         LINE#         1770
  C:8198H         LINE#         1771
  C:819DH         LINE#         1772
  C:81A6H         LINE#         1781
  C:81A9H         LINE#         1785
  C:81ACH         LINE#         1794
  C:81AFH         LINE#         1795
BL51 BANKED LINKER/LOCATER V6.22                                                      07/02/2019  17:10:49  PAGE 157


  C:81B2H         LINE#         1796
  C:81B5H         LINE#         1797
  C:81B8H         LINE#         1798
  C:81BBH         LINE#         1799
  C:81BEH         LINE#         1800
  C:81C1H         LINE#         1801
  C:81C4H         LINE#         1802
  C:81C7H         LINE#         1803
  C:81CAH         LINE#         1804
  C:81CFH         LINE#         1806
  C:81D2H         LINE#         1808
  C:81D9H         LINE#         1809
  C:81E0H         LINE#         1811
  C:81E5H         LINE#         1813
  C:81EAH         LINE#         1814
  C:81F3H         LINE#         1815
  C:81F6H         LINE#         1816
  C:81FBH         LINE#         1817
  C:8204H         LINE#         1818
  C:8207H         LINE#         1819
  C:820CH         LINE#         1820
  C:8215H         LINE#         1823
  C:821CH         LINE#         1824
  C:8223H         LINE#         1825
  C:8228H         LINE#         1826
  C:822DH         LINE#         1827
  C:8236H         LINE#         1828
  C:8239H         LINE#         1829
  C:8243H         LINE#         1830
  C:824CH         LINE#         1831
  C:824FH         LINE#         1832
  C:8259H         LINE#         1833
  C:8262H         LINE#         1835
  C:8267H         LINE#         1838
  C:826DH         LINE#         1839
  C:8270H         LINE#         1842
  C:827AH         LINE#         1843
  C:8285H         LINE#         1844
  C:828FH         LINE#         1845
  C:8298H         LINE#         1846
  C:8298H         LINE#         1847
  C:829BH         LINE#         1849
  C:82A5H         LINE#         1850
  C:82AEH         LINE#         1851
  C:82B8H         LINE#         1852
  C:82C1H         LINE#         1856
  C:82C4H         LINE#         1857
  C:82C4H         LINE#         1858
  C:82C7H         LINE#         1860
  C:82D1H         LINE#         1861
  C:82DAH         LINE#         1863
  C:82E4H         LINE#         1864
  C:82EDH         LINE#         1865
  C:82F0H         LINE#         1866
  C:82F7H         LINE#         1868
  C:82FEH         LINE#         1869
  C:82FEH         LINE#         1870
BL51 BANKED LINKER/LOCATER V6.22                                                      07/02/2019  17:10:49  PAGE 158


  C:8305H         LINE#         1871
  C:831EH         LINE#         1872
  C:833BH         LINE#         1873
  C:8342H         LINE#         1875
  C:8345H         LINE#         1877
  C:8348H         LINE#         1878
  C:834BH         LINE#         1880
  C:8352H         LINE#         1881
  C:835CH         LINE#         1882
  C:8365H         LINE#         1884
  C:8365H         LINE#         1885
  C:8368H         LINE#         1887
  C:836BH         LINE#         1888
  C:836EH         LINE#         1889
  C:8371H         LINE#         1890
  C:8371H         LINE#         1891
  C:8374H         LINE#         1892
  C:837BH         LINE#         1893
  C:837EH         LINE#         1894
  C:8385H         LINE#         1895
  C:8388H         LINE#         1896
  C:8388H         LINE#         1897
  C:838BH         LINE#         1899
  C:8392H         LINE#         1900
  C:8392H         LINE#         1901
  C:83A7H         LINE#         1902
  C:83A7H         LINE#         1903
  C:83C3H         LINE#         1904
  C:83CAH         LINE#         1905
  C:83DAH         LINE#         1906
  C:83F7H         LINE#         1907
  C:83FAH         LINE#         1909
  C:8401H         LINE#         1910
  C:8404H         LINE#         1912
  -------         ENDPROC       TEXT_DEMO
  -------         PROC          DMA_DEMO
  -------         DO            
  X:022AH         SYMBOL        i
  -------         ENDDO         
  C:A356H         LINE#         1918
  C:A356H         LINE#         1919
  C:A356H         LINE#         1924
  C:A359H         LINE#         1925
  C:A359H         LINE#         1926
  C:A359H         LINE#         1927
  C:A359H         LINE#         1929
  C:A359H         LINE#         1930
  C:A359H         LINE#         1931
  C:A359H         LINE#         1932
  C:A35CH         LINE#         1934
  C:A35EH         LINE#         1935
  C:A361H         LINE#         1936
  C:A363H         LINE#         1937
  C:A366H         LINE#         1939
  C:A369H         LINE#         1940
  C:A371H         LINE#         1941
  C:A373H         LINE#         1942
BL51 BANKED LINKER/LOCATER V6.22                                                      07/02/2019  17:10:49  PAGE 159


  C:A376H         LINE#         1950
  C:A376H         LINE#         1951
  C:A376H         LINE#         1952
  C:A379H         LINE#         1953
  C:A37CH         LINE#         1954
  C:A384H         LINE#         1955
  C:A38DH         LINE#         1956
  C:A38DH         LINE#         1957
  C:A390H         LINE#         1958
  C:A393H         LINE#         1959
  C:A39DH         LINE#         1960
  C:A3A6H         LINE#         1963
  C:A3A9H         LINE#         1964
  C:A3ACH         LINE#         1965
  C:A3AFH         LINE#         1966
  C:A3B2H         LINE#         1969
  C:A3B5H         LINE#         1972
  C:A3B8H         LINE#         1976
  C:A3BBH         LINE#         1980
  C:A3C0H         LINE#         2014
  C:A3C3H         LINE#         2015
  C:A3CBH         LINE#         2016
  C:A3CEH         LINE#         2019
  C:A3F2H         LINE#         2020
  C:A3F2H         LINE#         2021
  C:A403H         LINE#         2022
  C:A406H         LINE#         2023
  C:A409H         LINE#         2024
  C:A410H         LINE#         2025
  C:A413H         LINE#         2026
  C:A434H         LINE#         2027
  -------         ENDPROC       DMA_DEMO
  -------         PROC          GEOMETRIC
  -------         DO            
  X:022AH         SYMBOL        i
  -------         ENDDO         
  C:7D97H         LINE#         2029
  C:7D97H         LINE#         2030
  C:7D97H         LINE#         2031
  C:7D9AH         LINE#         2032
  C:7D9AH         LINE#         2033
  C:7D9AH         LINE#         2034
  C:7D9AH         LINE#         2036
  C:7D9AH         LINE#         2037
  C:7D9AH         LINE#         2038
  C:7D9AH         LINE#         2039
  C:7D9DH         LINE#         2045
  C:7D9DH         LINE#         2046
  C:7D9DH         LINE#         2047
  C:7D9DH         LINE#         2048
  C:7DA0H         LINE#         2050
  C:7DB6H         LINE#         2051
  C:7DBAH         LINE#         2052
  C:7DBAH         LINE#         2053
  C:7DBAH         LINE#         2054
  C:7DBDH         LINE#         2055
  C:7DC4H         LINE#         2056
BL51 BANKED LINKER/LOCATER V6.22                                                      07/02/2019  17:10:49  PAGE 160


  C:7DD4H         LINE#         2058
  C:7DEAH         LINE#         2059
  C:7DEDH         LINE#         2060
  C:7DEDH         LINE#         2061
  C:7DEDH         LINE#         2062
  C:7DF0H         LINE#         2063
  C:7DF7H         LINE#         2064
  C:7E07H         LINE#         2065
  C:7E07H         LINE#         2067
  C:7E07H         LINE#         2068
  C:7E07H         LINE#         2069
  C:7E07H         LINE#         2070
  C:7E0AH         LINE#         2072
  C:7E20H         LINE#         2073
  C:7E24H         LINE#         2074
  C:7E24H         LINE#         2075
  C:7E24H         LINE#         2076
  C:7E24H         LINE#         2077
  C:7E27H         LINE#         2078
  C:7E2EH         LINE#         2079
  C:7E3EH         LINE#         2081
  C:7E54H         LINE#         2082
  C:7E57H         LINE#         2083
  C:7E57H         LINE#         2084
  C:7E57H         LINE#         2085
  C:7E57H         LINE#         2086
  C:7E5AH         LINE#         2087
  C:7E61H         LINE#         2088
  C:7E71H         LINE#         2089
  C:7E71H         LINE#         2092
  C:7E71H         LINE#         2093
  C:7E71H         LINE#         2094
  C:7E71H         LINE#         2095
  C:7E74H         LINE#         2097
  C:7E8AH         LINE#         2098
  C:7E8EH         LINE#         2099
  C:7E91H         LINE#         2100
  C:7E94H         LINE#         2101
  C:7E97H         LINE#         2102
  C:7E9EH         LINE#         2103
  C:7EABH         LINE#         2105
  C:7EC1H         LINE#         2106
  C:7EC1H         LINE#         2107
  C:7EC4H         LINE#         2108
  C:7EC7H         LINE#         2109
  C:7ECAH         LINE#         2110
  C:7ED1H         LINE#         2111
  C:7EDEH         LINE#         2112
  C:7EDEH         LINE#         2115
  C:7EDEH         LINE#         2116
  C:7EDEH         LINE#         2117
  C:7EDEH         LINE#         2118
  C:7EE1H         LINE#         2120
  C:7EF7H         LINE#         2121
  C:7EF9H         LINE#         2122
  C:7EFCH         LINE#         2123
  C:7EFCH         LINE#         2124
BL51 BANKED LINKER/LOCATER V6.22                                                      07/02/2019  17:10:49  PAGE 161


  C:7EFFH         LINE#         2125
  C:7F06H         LINE#         2126
  C:7F16H         LINE#         2128
  C:7F2CH         LINE#         2129
  C:7F2CH         LINE#         2130
  C:7F2FH         LINE#         2131
  C:7F2FH         LINE#         2132
  C:7F32H         LINE#         2133
  C:7F39H         LINE#         2134
  C:7F49H         LINE#         2135
  C:7F49H         LINE#         2138
  C:7F49H         LINE#         2139
  C:7F49H         LINE#         2140
  C:7F49H         LINE#         2141
  C:7F4CH         LINE#         2143
  C:7F62H         LINE#         2144
  C:7F66H         LINE#         2145
  C:7F66H         LINE#         2146
  C:7F66H         LINE#         2147
  C:7F66H         LINE#         2148
  C:7F69H         LINE#         2149
  C:7F70H         LINE#         2150
  C:7F80H         LINE#         2152
  C:7F96H         LINE#         2153
  C:7F99H         LINE#         2154
  C:7F99H         LINE#         2155
  C:7F99H         LINE#         2156
  C:7F99H         LINE#         2157
  C:7F9CH         LINE#         2158
  C:7FA3H         LINE#         2159
  C:7FB3H         LINE#         2160
  C:7FB3H         LINE#         2164
  C:7FB3H         LINE#         2165
  C:7FB3H         LINE#         2166
  C:7FB3H         LINE#         2167
  C:7FB6H         LINE#         2169
  C:7FCCH         LINE#         2170
  C:7FD3H         LINE#         2171
  C:7FDEH         LINE#         2172
  C:7FF6H         LINE#         2173
  C:7FF9H         LINE#         2174
  C:8000H         LINE#         2175
  C:8010H         LINE#         2176
  C:8026H         LINE#         2177
  C:802AH         LINE#         2178
  C:802AH         LINE#         2179
  C:802AH         LINE#         2180
  C:802DH         LINE#         2181
  C:8034H         LINE#         2182
  C:8044H         LINE#         2185
  C:805AH         LINE#         2186
  C:8060H         LINE#         2187
  C:806BH         LINE#         2188
  C:8083H         LINE#         2189
  C:8086H         LINE#         2190
  C:808DH         LINE#         2191
  C:809DH         LINE#         2192
BL51 BANKED LINKER/LOCATER V6.22                                                      07/02/2019  17:10:49  PAGE 162


  C:80B3H         LINE#         2193
  C:80B6H         LINE#         2194
  C:80B6H         LINE#         2195
  C:80B6H         LINE#         2196
  C:80B9H         LINE#         2197
  C:80C0H         LINE#         2198
  C:80D0H         LINE#         2200
  -------         ENDPROC       GEOMETRIC
  -------         PROC          GRAY
  -------         DO            
  X:022AH         SYMBOL        i
  X:022CH         SYMBOL        col
  X:022EH         SYMBOL        line
  -------         ENDDO         
  C:93EEH         LINE#         2205
  C:93EEH         LINE#         2206
  C:93EEH         LINE#         2207
  C:93F1H         LINE#         2208
  C:93F1H         LINE#         2209
  C:93F1H         LINE#         2210
  C:93F1H         LINE#         2212
  C:93F1H         LINE#         2213
  C:93F1H         LINE#         2214
  C:93F1H         LINE#         2215
  C:93F4H         LINE#         2218
  C:93FFH         LINE#         2219
  C:9417H         LINE#         2220
  C:9417H         LINE#         2221
  C:9417H         LINE#         2222
  C:941AH         LINE#         2223
  C:941DH         LINE#         2224
  C:942BH         LINE#         2225
  C:943BH         LINE#         2226
  C:9448H         LINE#         2227
  C:9461H         LINE#         2228
  C:9461H         LINE#         2229
  C:9461H         LINE#         2230
  C:9464H         LINE#         2231
  C:9467H         LINE#         2232
  C:9475H         LINE#         2233
  C:9485H         LINE#         2235
  C:9492H         LINE#         2236
  C:94ABH         LINE#         2237
  C:94B9H         LINE#         2238
  C:94CAH         LINE#         2239
  C:94D3H         LINE#         2240
  C:94D6H         LINE#         2241
  C:94E4H         LINE#         2242
  C:94F4H         LINE#         2243
  C:9502H         LINE#         2244
  C:951BH         LINE#         2245
  C:9529H         LINE#         2246
  C:953AH         LINE#         2247
  C:9543H         LINE#         2248
  C:9546H         LINE#         2249
  C:9554H         LINE#         2250
  C:9564H         LINE#         2253
BL51 BANKED LINKER/LOCATER V6.22                                                      07/02/2019  17:10:49  PAGE 163


  C:9572H         LINE#         2254
  C:958BH         LINE#         2255
  C:958BH         LINE#         2256
  C:958BH         LINE#         2257
  C:958EH         LINE#         2258
  C:9591H         LINE#         2259
  C:959FH         LINE#         2260
  C:95AFH         LINE#         2261
  C:95BDH         LINE#         2262
  C:95D6H         LINE#         2263
  C:95D6H         LINE#         2264
  C:95D6H         LINE#         2265
  C:95D9H         LINE#         2266
  C:95DCH         LINE#         2267
  C:95EAH         LINE#         2268
  C:95FAH         LINE#         2271
  C:9601H         LINE#         2272
  -------         ENDPROC       GRAY
  -------         PROC          L?1060
  -------         ENDPROC       L?1060
  -------         PROC          _SDWRITE
  D:0007H         SYMBOL        n
  -------         DO            
  D:0006H         SYMBOL        i
  -------         ENDDO         
  C:C124H         LINE#         14
  C:C124H         LINE#         15
  C:C124H         LINE#         19
  C:C126H         LINE#         20
  C:C126H         LINE#         21
  C:C128H         LINE#         22
  C:C12CH         LINE#         23
  C:C130H         LINE#         24
  C:C132H         LINE#         25
  C:C134H         LINE#         26
  C:C136H         LINE#         27
  -------         ENDPROC       _SDWRITE
  -------         PROC          SDREAD
  -------         DO            
  D:0007H         SYMBOL        n
  D:0006H         SYMBOL        i
  -------         ENDDO         
  C:C40EH         LINE#         30
  C:C40EH         LINE#         31
  C:C40EH         LINE#         33
  C:C410H         LINE#         34
  C:C410H         LINE#         35
  C:C412H         LINE#         36
  C:C414H         LINE#         37
  C:C418H         LINE#         38
  C:C41EH         LINE#         40
  C:C420H         LINE#         41
  C:C420H         LINE#         42
  -------         ENDPROC       SDREAD
  -------         PROC          L?1068
  -------         ENDPROC       L?1068
  -------         PROC          SDRESPONSE
BL51 BANKED LINKER/LOCATER V6.22                                                      07/02/2019  17:10:49  PAGE 164


  -------         DO            
  D:0004H         SYMBOL        i
  D:0005H         SYMBOL        response
  -------         ENDDO         
  C:C13AH         LINE#         45
  C:C13AH         LINE#         46
  C:C13AH         LINE#         47
  C:C13CH         LINE#         49
  C:C13CH         LINE#         50
  C:C13CH         LINE#         51
  C:C141H         LINE#         52
  C:C144H         LINE#         53
  C:C144H         LINE#         54
  C:C149H         LINE#         55
  C:C149H         LINE#         56
  C:C14AH         LINE#         57
  C:C14EH         LINE#         58
  C:C150H         LINE#         59
  -------         ENDPROC       SDRESPONSE
  -------         PROC          _SDCOMMAND
  D:0007H         SYMBOL        command
  X:023DH         SYMBOL        argument
  X:0241H         SYMBOL        CRC
  C:BE9CH         LINE#         62
  C:BE9CH         LINE#         63
  C:BE9CH         LINE#         65
  C:BEA3H         LINE#         66
  C:BEABH         LINE#         67
  C:BEB1H         LINE#         68
  C:BEB7H         LINE#         69
  C:BEBDH         LINE#         70
  -------         ENDPROC       _SDCOMMAND
  -------         PROC          SDINIT
  -------         DO            
  X:0233H         SYMBOL        delay
  X:0235H         SYMBOL        trials
  D:0004H         SYMBOL        i
  D:0005H         SYMBOL        response
  -------         ENDDO         
  C:AD72H         LINE#         74
  C:AD72H         LINE#         75
  C:AD72H         LINE#         76
  C:AD7DH         LINE#         78
  C:AD7FH         LINE#         80
  C:AD81H         LINE#         81
  C:AD82H         LINE#         82
  C:AD8CH         LINE#         83
  C:AD8EH         LINE#         86
  C:ADA0H         LINE#         89
  C:ADA5H         LINE#         91
  C:ADAAH         LINE#         92
  C:ADAAH         LINE#         93
  C:ADADH         LINE#         94
  C:ADADH         LINE#         96
  C:ADB1H         LINE#         97
  C:ADB1H         LINE#         98
  C:ADB3H         LINE#         99
BL51 BANKED LINKER/LOCATER V6.22                                                      07/02/2019  17:10:49  PAGE 165


  C:ADB8H         LINE#         100
  C:ADBAH         LINE#         101
  C:ADCCH         LINE#         102
  C:ADD1H         LINE#         103
  C:ADD3H         LINE#         105
  C:ADD5H         LINE#         106
  C:ADDAH         LINE#         107
  C:ADDCH         LINE#         108
  -------         ENDPROC       SDINIT
  -------         PROC          _SDWRITEBLOCK
  X:0347H         SYMBOL        Block
  X:034AH         SYMBOL        address
  X:034EH         SYMBOL        len
  -------         DO            
  D:0004H         SYMBOL        count
  D:0005H         SYMBOL        dataResp
  -------         ENDDO         
  C:A745H         LINE#         111
  C:A754H         LINE#         112
  C:A754H         LINE#         118
  C:A756H         LINE#         120
  C:A775H         LINE#         122
  C:A77BH         LINE#         123
  C:A77BH         LINE#         124
  C:A77BH         LINE#         125
  C:A77EH         LINE#         126
  C:A783H         LINE#         129
  C:A788H         LINE#         131
  C:A7B6H         LINE#         133
  C:A7C8H         LINE#         135
  C:A7C8H         LINE#         136
  C:A7CBH         LINE#         138
  C:A7D0H         LINE#         143
  C:A7D6H         LINE#         145
  C:A7DAH         LINE#         146
  C:A7DCH         LINE#         147
  C:A7E1H         LINE#         148
  C:A7E5H         LINE#         149
  C:A7E5H         LINE#         151
  C:A7E8H         LINE#         152
  C:A7E8H         LINE#         153
  C:A7ECH         LINE#         154
  C:A7EFH         LINE#         157
  C:A7F2H         LINE#         158
  C:A7F2H         LINE#         160
  C:A7F4H         LINE#         161
  -------         ENDPROC       _SDWRITEBLOCK
  -------         PROC          _SDREADBLOCK
  X:0233H         SYMBOL        Block
  X:0236H         SYMBOL        address
  X:023AH         SYMBOL        len
  -------         DO            
  D:0004H         SYMBOL        count
  -------         ENDDO         
  C:A9ADH         LINE#         165
  C:A9BCH         LINE#         166
  C:A9BCH         LINE#         173
BL51 BANKED LINKER/LOCATER V6.22                                                      07/02/2019  17:10:49  PAGE 166


  C:A9BEH         LINE#         175
  C:A9DDH         LINE#         177
  C:A9E3H         LINE#         178
  C:A9E3H         LINE#         181
  C:A9E9H         LINE#         183
  C:AA17H         LINE#         185
  C:AA27H         LINE#         188
  C:AA2AH         LINE#         189
  C:AA2DH         LINE#         191
  C:AA2FH         LINE#         192
  C:AA32H         LINE#         193
  C:AA35H         LINE#         194
  C:AA35H         LINE#         196
  C:AA37H         LINE#         197
  -------         ENDPROC       _SDREADBLOCK
  -------         PROC          DISPLAY_JPG_SDCARD
  -------         DO            
  X:022AH         SYMBOL        jn
  D:0002H         SYMBOL        in
  X:022EH         SYMBOL        AddTemp
  X:0232H         SYMBOL        mn
  -------         ENDDO         
  C:9F2CH         LINE#         200
  C:9F2CH         LINE#         201
  C:9F2CH         LINE#         204
  C:9F36H         LINE#         205
  C:9F3CH         LINE#         208
  C:9F3FH         LINE#         209
  C:9F3FH         LINE#         210
  C:9F3FH         LINE#         211
  C:9F3FH         LINE#         213
  C:9F3FH         LINE#         214
  C:9F3FH         LINE#         215
  C:9F3FH         LINE#         216
  C:9F42H         LINE#         218
  C:9F46H         LINE#         219
  C:9F46H         LINE#         220
  C:9F46H         LINE#         221
  C:9F49H         LINE#         224
  C:9F4CH         LINE#         225
  C:9F55H         LINE#         226
  C:9F55H         LINE#         227
  C:9F5DH         LINE#         230
  C:9F85H         LINE#         231
  C:9F85H         LINE#         232
  C:9FC1H         LINE#         233
  C:9FC4H         LINE#         234
  C:9FCDH         LINE#         235
  C:9FCDH         LINE#         236
  C:9FDCH         LINE#         237
  C:9FEBH         LINE#         238
  C:9FF4H         LINE#         239
  C:9FF8H         LINE#         240
  C:A01AH         LINE#         241
  C:A061H         LINE#         243
  C:A064H         LINE#         244
  C:A06DH         LINE#         248
BL51 BANKED LINKER/LOCATER V6.22                                                      07/02/2019  17:10:49  PAGE 167


  -------         ENDPROC       DISPLAY_JPG_SDCARD
  -------         PROC          TOUCH_START
  C:C212H         LINE#         106
  C:C212H         LINE#         107
  C:C212H         LINE#         108
  C:C214H         LINE#         109
  C:C215H         LINE#         110
  C:C217H         LINE#         111
  C:C21EH         LINE#         112
  C:C220H         LINE#         113
  C:C227H         LINE#         114
  C:C229H         LINE#         116
  -------         ENDPROC       TOUCH_START
  -------         PROC          TOUCH_STOP
  C:C22AH         LINE#         120
  C:C22AH         LINE#         121
  C:C22AH         LINE#         122
  C:C22CH         LINE#         123
  C:C22DH         LINE#         124
  C:C22FH         LINE#         125
  C:C236H         LINE#         126
  C:C238H         LINE#         127
  C:C23FH         LINE#         128
  C:C241H         LINE#         130
  -------         ENDPROC       TOUCH_STOP
  C:C25AH         SYMBOL        L?1048
  C:C25BH         SYMBOL        L?1049
  -------         PROC          L?1047
  -------         ENDPROC       L?1047
  C:C25AH         SYMBOL        L?1048
  C:C25BH         SYMBOL        L?1049
  -------         PROC          TOUCH_WAIT_ACK
  -------         DO            
  X:0346H         SYMBOL        errtime
  -------         ENDDO         
  C:C25FH         LINE#         134
  C:C25FH         LINE#         135
  C:C264H         LINE#         137
  C:C266H         LINE#         139
  C:C268H         LINE#         141
  C:C26BH         LINE#         142
  C:C26BH         LINE#         150
  C:C26BH         LINE#         151
  C:C26DH         LINE#         153
  C:C26FH         LINE#         154
  -------         ENDPROC       TOUCH_WAIT_ACK
  -------         PROC          TOUCH_ACK
  C:D46EH         LINE#         159
  C:D46EH         LINE#         160
  C:D470H         LINE#         161
  C:D471H         LINE#         162
  C:D473H         LINE#         163
  C:D473H         LINE#         164
  C:D473H         LINE#         165
  C:D476H         LINE#         166
  C:D478H         LINE#         167
  C:D479H         LINE#         168
BL51 BANKED LINKER/LOCATER V6.22                                                      07/02/2019  17:10:49  PAGE 168


  -------         ENDPROC       TOUCH_ACK
  -------         PROC          TOUCH_NACK
  C:C52FH         LINE#         173
  C:C52FH         LINE#         174
  C:C531H         LINE#         175
  C:C538H         LINE#         176
  C:C53AH         LINE#         177
  C:C53AH         LINE#         178
  C:C53AH         LINE#         179
  C:C53DH         LINE#         180
  C:C53FH         LINE#         181
  C:C540H         LINE#         182
  -------         ENDPROC       TOUCH_NACK
  -------         PROC          _TOUCH_SEND_BYTE
  D:0005H         SYMBOL        Byte
  -------         DO            
  D:0003H         SYMBOL        t
  -------         ENDDO         
  C:C151H         LINE#         186
  C:C153H         LINE#         187
  C:C153H         LINE#         188
  C:C155H         LINE#         190
  C:C157H         LINE#         191
  C:C157H         LINE#         192
  C:C15BH         LINE#         193
  C:C15FH         LINE#         194
  C:C15FH         LINE#         195
  C:C15FH         LINE#         196
  C:C162H         LINE#         197
  C:C164H         LINE#         199
  C:C169H         LINE#         201
  -------         ENDPROC       _TOUCH_SEND_BYTE
  -------         PROC          _TOUCH_READ_BYTE
  D:0005H         SYMBOL        ack
  -------         DO            
  D:0002H         SYMBOL        t
  D:0003H         SYMBOL        receive
  -------         ENDDO         
  C:BA22H         LINE#         204
  C:BA24H         LINE#         205
  C:BA26H         LINE#         207
  C:BA28H         LINE#         209
  C:BA2AH         LINE#         211
  C:BA2BH         LINE#         212
  C:BA2CH         LINE#         213
  C:BA2EH         LINE#         214
  C:BA35H         LINE#         215
  C:BA37H         LINE#         216
  C:BA3EH         LINE#         217
  C:BA42H         LINE#         218
  C:BA48H         LINE#         220
  C:BA4DH         LINE#         223
  C:BA55H         LINE#         224
  C:BA58H         LINE#         226
  C:BA5AH         LINE#         227
  -------         ENDPROC       _TOUCH_READ_BYTE
  -------         PROC          _GT9271_WR_REG
BL51 BANKED LINKER/LOCATER V6.22                                                      07/02/2019  17:10:49  PAGE 169


  X:033FH         SYMBOL        reg
  X:0341H         SYMBOL        buf
  X:0344H         SYMBOL        len
  -------         DO            
  X:0345H         SYMBOL        i
  D:0002H         SYMBOL        ret
  -------         ENDDO         
  C:AFDCH         LINE#         229
  C:AFEDH         LINE#         230
  C:AFEDH         LINE#         232
  C:AFEFH         LINE#         233
  C:AFF2H         LINE#         234
  C:AFF7H         LINE#         235
  C:AFFAH         LINE#         236
  C:AFFDH         LINE#         237
  C:B000H         LINE#         238
  C:B003H         LINE#         239
  C:B006H         LINE#         240
  C:B017H         LINE#         241
  C:B017H         LINE#         242
  C:B02AH         LINE#         243
  C:B02FH         LINE#         244
  C:B032H         LINE#         245
  C:B03AH         LINE#         246
  C:B03DH         LINE#         247
  C:B03FH         LINE#         248
  -------         ENDPROC       _GT9271_WR_REG
  -------         PROC          L?1067
  -------         ENDPROC       L?1067
  -------         PROC          _GT9271_RD_REG
  X:033FH         SYMBOL        reg
  X:0341H         SYMBOL        buf
  X:0344H         SYMBOL        len
  -------         DO            
  X:0345H         SYMBOL        i
  -------         ENDDO         
  C:AAC2H         LINE#         251
  C:AAD3H         LINE#         252
  C:AAD3H         LINE#         254
  C:AAD6H         LINE#         255
  C:AADBH         LINE#         256
  C:AADEH         LINE#         257
  C:AAE1H         LINE#         258
  C:AAE4H         LINE#         259
  C:AAE7H         LINE#         260
  C:AAEAH         LINE#         262
  C:AAEDH         LINE#         263
  C:AAF2H         LINE#         264
  C:AAF5H         LINE#         265
  C:AB06H         LINE#         266
  C:AB06H         LINE#         267
  C:AB2CH         LINE#         273
  C:AB34H         LINE#         274
  -------         ENDPROC       _GT9271_RD_REG
  -------         PROC          _GT9271_SEND_CFG
  X:02EAH         SYMBOL        buf
  X:02EDH         SYMBOL        cfg_len
BL51 BANKED LINKER/LOCATER V6.22                                                      07/02/2019  17:10:49  PAGE 170


  -------         DO            
  D:0004H         SYMBOL        ret
  X:02EFH         SYMBOL        retry
  -------         ENDDO         
  C:B3F0H         LINE#         277
  C:B401H         LINE#         278
  C:B401H         LINE#         279
  C:B403H         LINE#         280
  C:B405H         LINE#         281
  C:B406H         LINE#         282
  C:B406H         LINE#         283
  C:B421H         LINE#         284
  C:B424H         LINE#         285
  C:B42BH         LINE#         286
  C:B437H         LINE#         287
  C:B439H         LINE#         288
  -------         ENDPROC       _GT9271_SEND_CFG
  -------         PROC          L?0989
  -------         ENDPROC       L?0989
  -------         PROC          _DRAW_BIG_POINT
  X:02EAH         SYMBOL        x
  X:02ECH         SYMBOL        y
  X:02EEH         SYMBOL        colour
  C:A1A2H         LINE#         296
  C:A1B6H         LINE#         297
  C:A1B9H         LINE#         298
  C:A1D8H         LINE#         299
  C:A1DDH         LINE#         300
  C:A1E6H         LINE#         301
  C:A1EFH         LINE#         302
  C:A1F8H         LINE#         303
  C:A211H         LINE#         304
  C:A216H         LINE#         305
  C:A21FH         LINE#         306
  C:A228H         LINE#         307
  C:A231H         LINE#         308
  C:A250H         LINE#         309
  C:A255H         LINE#         310
  C:A25EH         LINE#         311
  C:A267H         LINE#         312
  -------         ENDPROC       _DRAW_BIG_POINT
  -------         PROC          GT9271_READ_DATA
  -------         DO            
  X:02EAH         SYMBOL        buf
  X:033AH         SYMBOL        ret
  X:033BH         SYMBOL        ss
  -------         ENDDO         
  C:91D4H         LINE#         315
  C:91D4H         LINE#         316
  C:91ECH         LINE#         319
  C:91F5H         LINE#         321
  C:91FAH         LINE#         322
  C:920CH         LINE#         324
  C:9216H         LINE#         329
  C:9218H         LINE#         330
  C:9218H         LINE#         332
  C:921AH         LINE#         333
BL51 BANKED LINKER/LOCATER V6.22                                                      07/02/2019  17:10:49  PAGE 171


  C:921AH         LINE#         336
  C:9253H         LINE#         337
  C:9253H         LINE#         338
  C:9253H         LINE#         339
  C:9267H         LINE#         340
  C:927BH         LINE#         342
  C:927BH         LINE#         343
  C:928FH         LINE#         344
  C:92A3H         LINE#         346
  C:92A3H         LINE#         347
  C:92B7H         LINE#         348
  C:92CBH         LINE#         350
  C:92CBH         LINE#         351
  C:92DFH         LINE#         352
  C:92F3H         LINE#         354
  C:92F3H         LINE#         355
  C:9307H         LINE#         356
  C:931BH         LINE#         358
  C:931BH         LINE#         359
  C:932FH         LINE#         360
  C:9343H         LINE#         362
  C:9343H         LINE#         363
  C:9357H         LINE#         364
  C:936BH         LINE#         366
  C:936BH         LINE#         367
  C:937FH         LINE#         368
  C:9393H         LINE#         370
  C:9393H         LINE#         371
  C:93A7H         LINE#         372
  C:93BBH         LINE#         374
  C:93BBH         LINE#         375
  C:93CFH         LINE#         376
  C:93E3H         LINE#         378
  C:93E5H         LINE#         379
  C:93E5H         LINE#         380
  C:93E8H         LINE#         381
  C:93E8H         LINE#         385
  C:93EDH         LINE#         386
  -------         ENDPROC       GT9271_READ_DATA
  -------         PROC          L?1064
  -------         ENDPROC       L?1064
  -------         PROC          _INTTOSTR
  X:02EAH         SYMBOL        value
  X:02ECH         SYMBOL        str
  C:A27BH         LINE#         389
  C:A28CH         LINE#         390
  C:A28CH         LINE#         391
  C:A2ACH         LINE#         392
  C:A2DCH         LINE#         393
  C:A319H         LINE#         394
  -------         ENDPROC       _INTTOSTR
  -------         PROC          TOUCH_INIT
  C:AC1FH         LINE#         399
  C:AC1FH         LINE#         400
  C:AC1FH         LINE#         412
  C:AC21H         LINE#         413
  C:AC23H         LINE#         414
BL51 BANKED LINKER/LOCATER V6.22                                                      07/02/2019  17:10:49  PAGE 172


  C:AC2AH         LINE#         415
  C:AC2CH         LINE#         416
  C:AC33H         LINE#         417
  C:AC35H         LINE#         418
  C:AC37H         LINE#         419
  C:AC3EH         LINE#         421
  C:AC45H         LINE#         422
  C:AC49H         LINE#         423
  C:AC4DH         LINE#         424
  C:AC51H         LINE#         425
  C:AC55H         LINE#         426
  C:AC59H         LINE#         427
  C:AC5DH         LINE#         428
  C:AC61H         LINE#         429
  C:AC65H         LINE#         430
  C:AC69H         LINE#         431
  C:AC6DH         LINE#         432
  C:AC71H         LINE#         433
  C:AC75H         LINE#         434
  C:AC79H         LINE#         435
  C:AC7DH         LINE#         436
  C:AC81H         LINE#         437
  C:AC85H         LINE#         438
  C:AC89H         LINE#         439
  C:AC8DH         LINE#         440
  C:AC91H         LINE#         442
  -------         ENDPROC       TOUCH_INIT
  -------         PROC          TPTEST
  -------         DO            
  X:022AH         SYMBOL        ss
  X:022EH         SYMBOL        bb
  D:0007H         SYMBOL        re
  X:02E9H         SYMBOL        i
  -------         ENDDO         
  C:8FA2H         LINE#         445
  C:8FA2H         LINE#         446
  C:8FA4H         LINE#         447
  C:8FA9H         LINE#         450
  C:8FACH         LINE#         451
  C:8FACH         LINE#         452
  C:8FACH         LINE#         453
  C:8FACH         LINE#         455
  C:8FACH         LINE#         456
  C:8FACH         LINE#         457
  C:8FACH         LINE#         458
  C:8FAFH         LINE#         460
  C:8FAFH         LINE#         461
  C:8FAFH         LINE#         462
  C:8FAFH         LINE#         463
  C:8FB2H         LINE#         465
  C:8FB3H         LINE#         466
  C:8FB3H         LINE#         467
  C:8FB6H         LINE#         468
  C:8FB9H         LINE#         469
  C:8FBCH         LINE#         470
  C:8FC5H         LINE#         476
  C:8FCCH         LINE#         477
BL51 BANKED LINKER/LOCATER V6.22                                                      07/02/2019  17:10:49  PAGE 173


  C:8FD2H         LINE#         478
  C:8FD5H         LINE#         479
  C:8FD8H         LINE#         482
  C:8FDBH         LINE#         484
  C:8FE8H         LINE#         485
  C:8FEDH         LINE#         486
  C:8FFBH         LINE#         487
  C:9007H         LINE#         512
  C:900DH         LINE#         513
  C:900DH         LINE#         514
  C:9017H         LINE#         515
  C:9020H         LINE#         519
  C:9029H         LINE#         520
  C:9030H         LINE#         521
  C:9030H         LINE#         525
  C:9033H         LINE#         526
  C:9038H         LINE#         530
  C:903EH         LINE#         533
  C:9049H         LINE#         535
  C:9052H         LINE#         536
  C:9055H         LINE#         537
  C:9055H         LINE#         538
  C:9055H         LINE#         539
  C:9058H         LINE#         540
  C:9059H         LINE#         541
  C:905CH         LINE#         542
  C:905DH         LINE#         543
  C:9060H         LINE#         544
  C:9061H         LINE#         545
  C:9064H         LINE#         547
  C:906AH         LINE#         548
  C:9075H         LINE#         550
  C:907EH         LINE#         551
  C:9081H         LINE#         552
  C:9081H         LINE#         553
  C:9081H         LINE#         554
  C:9084H         LINE#         555
  C:9085H         LINE#         556
  C:9088H         LINE#         557
  C:9089H         LINE#         558
  C:908CH         LINE#         559
  C:908DH         LINE#         560
  C:9090H         LINE#         562
  C:90B6H         LINE#         563
  C:90BEH         LINE#         564
  C:90E4H         LINE#         565
  C:90ECH         LINE#         566
  C:9112H         LINE#         567
  C:9138H         LINE#         568
  C:915EH         LINE#         569
  C:9184H         LINE#         570
  C:91AAH         LINE#         571
  C:91D0H         LINE#         574
  C:91D0H         LINE#         577
  C:91D3H         LINE#         581
  -------         ENDPROC       TPTEST
  -------         PROC          MAIN
BL51 BANKED LINKER/LOCATER V6.22                                                      07/02/2019  17:10:49  PAGE 174


  C:A4FDH         LINE#         36
  C:A4FDH         LINE#         37
  C:A4FDH         LINE#         39
  C:A500H         LINE#         40
  C:A503H         LINE#         41
  C:A506H         LINE#         42
  C:A509H         LINE#         46
  C:A510H         LINE#         47
  C:A513H         LINE#         48
  C:A51AH         LINE#         49
  C:A521H         LINE#         51
  C:A524H         LINE#         52
  C:A527H         LINE#         53
  C:A52EH         LINE#         56
  C:A530H         LINE#         57
  C:A530H         LINE#         58
  C:A530H         LINE#         59
  C:A533H         LINE#         61
  C:A533H         LINE#         62
  C:A533H         LINE#         64
  C:A536H         LINE#         65
  C:A539H         LINE#         66
  C:A53CH         LINE#         67
  C:A53FH         LINE#         68
  C:A542H         LINE#         69
  C:A545H         LINE#         70
  C:A548H         LINE#         71
  C:A54BH         LINE#         72
  C:A552H         LINE#         73
  C:A559H         LINE#         75
  C:A55FH         LINE#         76
  C:A566H         LINE#         77
  C:A56DH         LINE#         78
  C:A574H         LINE#         79
  C:A57BH         LINE#         80
  C:A582H         LINE#         86
  C:A585H         LINE#         87
  C:A588H         LINE#         88
  C:A58BH         LINE#         89
  C:A58EH         LINE#         90
  C:A591H         LINE#         91
  C:A598H         LINE#         92
  C:A59BH         LINE#         93
  C:A5A2H         LINE#         94
  C:A5A5H         LINE#         95
  C:A5A8H         LINE#         96
  C:A5ABH         LINE#         97
  C:A5AEH         LINE#         99
  C:A5B1H         LINE#         100
  C:A5B4H         LINE#         101
  C:A5B7H         LINE#         103
  C:A5BAH         LINE#         104
  C:A5BDH         LINE#         105
  C:A5C0H         LINE#         106
  -------         ENDPROC       MAIN
  -------         ENDMOD        RA8876

BL51 BANKED LINKER/LOCATER V6.22                                                      07/02/2019  17:10:49  PAGE 175


  -------         MODULE        ?C?COPY
  C:84D7H         PUBLIC        ?C?COPY
  -------         ENDMOD        ?C?COPY

  -------         MODULE        ?C?CLDPTR
  C:84FDH         PUBLIC        ?C?CLDPTR
  -------         ENDMOD        ?C?CLDPTR

  -------         MODULE        ?C?CLDOPTR
  C:8516H         PUBLIC        ?C?CLDOPTR
  -------         ENDMOD        ?C?CLDOPTR

  -------         MODULE        ?C?CSTPTR
  C:8543H         PUBLIC        ?C?CSTPTR
  -------         ENDMOD        ?C?CSTPTR

  -------         MODULE        ?C?CSTOPTR
  C:8555H         PUBLIC        ?C?CSTOPTR
  -------         ENDMOD        ?C?CSTOPTR

  -------         MODULE        ?C?IMUL
  C:8577H         PUBLIC        ?C?IMUL
  -------         ENDMOD        ?C?IMUL

  -------         MODULE        ?C?UIDIV
  C:8589H         PUBLIC        ?C?UIDIV
  -------         ENDMOD        ?C?UIDIV

  -------         MODULE        ?C?SIDIV
  C:85DEH         PUBLIC        ?C?SIDIV
  -------         ENDMOD        ?C?SIDIV

  -------         MODULE        ?C?IILDX
  C:8614H         PUBLIC        ?C?IILDX
  -------         ENDMOD        ?C?IILDX

  -------         MODULE        ?C?ILDIX
  C:862AH         PUBLIC        ?C?ILDIX
  -------         ENDMOD        ?C?ILDIX

  -------         MODULE        ?C?ILDOPTR
  C:8640H         PUBLIC        ?C?ILDOPTR
  -------         ENDMOD        ?C?ILDOPTR

  -------         MODULE        ?C?LMUL
  C:8678H         PUBLIC        ?C?LMUL
  -------         ENDMOD        ?C?LMUL

  -------         MODULE        ?C?ULCMP
  C:86C7H         PUBLIC        ?C?ULCMP
  -------         ENDMOD        ?C?ULCMP

  -------         MODULE        ?C?ULSHR
  C:86D8H         PUBLIC        ?C?ULSHR
  -------         ENDMOD        ?C?ULSHR

  -------         MODULE        ?C?LSTXDATA
BL51 BANKED LINKER/LOCATER V6.22                                                      07/02/2019  17:10:49  PAGE 176


  C:86EBH         PUBLIC        ?C?LSTXDATA
  -------         ENDMOD        ?C?LSTXDATA

  -------         MODULE        ?C?LSTKXDATA
  C:86F7H         PUBLIC        ?C?LSTKXDATA
  -------         ENDMOD        ?C?LSTKXDATA

  -------         MODULE        RAND
  X:0372H         PUBLIC        ?SRAND?BYTE
  C:B30BH         PUBLIC        RAND
  C:B349H         PUBLIC        _SRAND
  -------         ENDMOD        RAND

  -------         MODULE        ?C?LLDXDATA
  C:8728H         PUBLIC        ?C?LLDXDATA
  -------         ENDMOD        ?C?LLDXDATA

*** WARNING L16: UNCALLED SEGMENT, IGNORED FOR OVERLAY PROCESS
    SEGMENT: ?PR?_DELAY10MS?RA8876

*** WARNING L16: UNCALLED SEGMENT, IGNORED FOR OVERLAY PROCESS
    SEGMENT: ?PR?_LCD_REGISTERREAD?RA8876

*** WARNING L16: UNCALLED SEGMENT, IGNORED FOR OVERLAY PROCESS
    SEGMENT: ?PR?_LCD_CLEAR?RA8876

*** WARNING L16: UNCALLED SEGMENT, IGNORED FOR OVERLAY PROCESS
    SEGMENT: ?PR?CHECK_MEM_RD_FIFO_NOT_FULL?RA8876

*** WARNING L16: UNCALLED SEGMENT, IGNORED FOR OVERLAY PROCESS
    SEGMENT: ?PR?POWER_SAVING_STATUS?RA8876

*** WARNING L16: UNCALLED SEGMENT, IGNORED FOR OVERLAY PROCESS
    SEGMENT: ?PR?CHECK_POWER_IS_NORMAL?RA8876

*** WARNING L16: UNCALLED SEGMENT, IGNORED FOR OVERLAY PROCESS
    SEGMENT: ?PR?CHECK_POWER_IS_SAVING?RA8876

*** WARNING L16: UNCALLED SEGMENT, IGNORED FOR OVERLAY PROCESS
    SEGMENT: ?PR?CHECK_NO_INTERRUPT?RA8876

*** WARNING L16: UNCALLED SEGMENT, IGNORED FOR OVERLAY PROCESS
    SEGMENT: ?PR?CHECK_INTERRUPT_OCCUR?RA8876

*** WARNING L16: UNCALLED SEGMENT, IGNORED FOR OVERLAY PROCESS
    SEGMENT: ?PR?ENABLE_PLL?RA8876

*** WARNING L16: UNCALLED SEGMENT, IGNORED FOR OVERLAY PROCESS
    SEGMENT: ?PR?RA8876_SLEEP?RA8876

*** WARNING L16: UNCALLED SEGMENT, IGNORED FOR OVERLAY PROCESS
    SEGMENT: ?PR?RA8876_WAKEUP?RA8876

*** WARNING L16: UNCALLED SEGMENT, IGNORED FOR OVERLAY PROCESS
    SEGMENT: ?PR?TFT_18BIT?RA8876

*** WARNING L16: UNCALLED SEGMENT, IGNORED FOR OVERLAY PROCESS
BL51 BANKED LINKER/LOCATER V6.22                                                      07/02/2019  17:10:49  PAGE 177


    SEGMENT: ?PR?TFT_16BIT?RA8876

*** WARNING L16: UNCALLED SEGMENT, IGNORED FOR OVERLAY PROCESS
    SEGMENT: ?PR?TFT_LVDS?RA8876

*** WARNING L16: UNCALLED SEGMENT, IGNORED FOR OVERLAY PROCESS
    SEGMENT: ?PR?RA8876_I2CM_DISABLE?RA8876

*** WARNING L16: UNCALLED SEGMENT, IGNORED FOR OVERLAY PROCESS
    SEGMENT: ?PR?DISABLE_SFLASH_SPI?RA8876

*** WARNING L16: UNCALLED SEGMENT, IGNORED FOR OVERLAY PROCESS
    SEGMENT: ?PR?HOST_BUS_16BIT?RA8876

*** WARNING L16: UNCALLED SEGMENT, IGNORED FOR OVERLAY PROCESS
    SEGMENT: ?PR?RGB_8B_8BPP?RA8876

*** WARNING L16: UNCALLED SEGMENT, IGNORED FOR OVERLAY PROCESS
    SEGMENT: ?PR?RGB_8B_24BPP?RA8876

*** WARNING L16: UNCALLED SEGMENT, IGNORED FOR OVERLAY PROCESS
    SEGMENT: ?PR?RGB_16B_8BPP?RA8876

*** WARNING L16: UNCALLED SEGMENT, IGNORED FOR OVERLAY PROCESS
    SEGMENT: ?PR?RGB_16B_16BPP?RA8876

*** WARNING L16: UNCALLED SEGMENT, IGNORED FOR OVERLAY PROCESS
    SEGMENT: ?PR?RGB_16B_24BPP_MODE1?RA8876

*** WARNING L16: UNCALLED SEGMENT, IGNORED FOR OVERLAY PROCESS
    SEGMENT: ?PR?RGB_16B_24BPP_MODE2?RA8876

*** WARNING L16: UNCALLED SEGMENT, IGNORED FOR OVERLAY PROCESS
    SEGMENT: ?PR?MEMREAD_LEFT_RIGHT_TOP_DOWN?RA8876

*** WARNING L16: UNCALLED SEGMENT, IGNORED FOR OVERLAY PROCESS
    SEGMENT: ?PR?MEMREAD_RIGHT_LEFT_TOP_DOWN?RA8876

*** WARNING L16: UNCALLED SEGMENT, IGNORED FOR OVERLAY PROCESS
    SEGMENT: ?PR?MEMREAD_TOP_DOWN_LEFT_RIGHT?RA8876

*** WARNING L16: UNCALLED SEGMENT, IGNORED FOR OVERLAY PROCESS
    SEGMENT: ?PR?MEMREAD_DOWN_TOP_LEFT_RIGHT?RA8876

*** WARNING L16: UNCALLED SEGMENT, IGNORED FOR OVERLAY PROCESS
    SEGMENT: ?PR?MEMWRITE_RIGHT_LEFT_TOP_DOWN?RA8876

*** WARNING L16: UNCALLED SEGMENT, IGNORED FOR OVERLAY PROCESS
    SEGMENT: ?PR?MEMWRITE_TOP_DOWN_LEFT_RIGHT?RA8876

*** WARNING L16: UNCALLED SEGMENT, IGNORED FOR OVERLAY PROCESS
    SEGMENT: ?PR?MEMWRITE_DOWN_TOP_LEFT_RIGHT?RA8876

*** WARNING L16: UNCALLED SEGMENT, IGNORED FOR OVERLAY PROCESS
    SEGMENT: ?PR?INTERRUPT_ACTIVE_LOW?RA8876

*** WARNING L16: UNCALLED SEGMENT, IGNORED FOR OVERLAY PROCESS
BL51 BANKED LINKER/LOCATER V6.22                                                      07/02/2019  17:10:49  PAGE 178


    SEGMENT: ?PR?INTERRUPT_ACTIVE_HIGH?RA8876

*** WARNING L16: UNCALLED SEGMENT, IGNORED FOR OVERLAY PROCESS
    SEGMENT: ?PR?EXTINTERRUPT_DEBOUNCE?RA8876

*** WARNING L16: UNCALLED SEGMENT, IGNORED FOR OVERLAY PROCESS
    SEGMENT: ?PR?EXTINTERRUPT_NODEBOUNCE?RA8876

*** WARNING L16: UNCALLED SEGMENT, IGNORED FOR OVERLAY PROCESS
    SEGMENT: ?PR?EXTINTERRUPT_INPUT_LOW_LEVEL_TRIGGER?RA8876

*** WARNING L16: UNCALLED SEGMENT, IGNORED FOR OVERLAY PROCESS
    SEGMENT: ?PR?EXTINTERRUPT_INPUT_HIGH_LEVEL_TRIGGER?RA8876

*** WARNING L16: UNCALLED SEGMENT, IGNORED FOR OVERLAY PROCESS
    SEGMENT: ?PR?EXTINTERRUPT_INPUT_FALLING_EDGE_TRIGGER?RA8876

*** WARNING L16: UNCALLED SEGMENT, IGNORED FOR OVERLAY PROCESS
    SEGMENT: ?PR?EXTINTERRUPT_INPUT_RISING_EDGE_TRIGGER?RA8876

*** WARNING L16: UNCALLED SEGMENT, IGNORED FOR OVERLAY PROCESS
    SEGMENT: ?PR?MEMORY_SELECT_COLOR_PALETTE_RAM?RA8876

*** WARNING L16: UNCALLED SEGMENT, IGNORED FOR OVERLAY PROCESS
    SEGMENT: ?PR?ENABLE_RESUME_INTERRUPT?RA8876

*** WARNING L16: UNCALLED SEGMENT, IGNORED FOR OVERLAY PROCESS
    SEGMENT: ?PR?DISABLE_RESUME_INTERRUPT?RA8876

*** WARNING L16: UNCALLED SEGMENT, IGNORED FOR OVERLAY PROCESS
    SEGMENT: ?PR?ENABLE_EXTINTERRUPT_INPUT?RA8876

*** WARNING L16: UNCALLED SEGMENT, IGNORED FOR OVERLAY PROCESS
    SEGMENT: ?PR?DISABLE_EXTINTERRUPT_INPUT?RA8876

*** WARNING L16: UNCALLED SEGMENT, IGNORED FOR OVERLAY PROCESS
    SEGMENT: ?PR?ENABLE_I2CM_INTERRUPT?RA8876

*** WARNING L16: UNCALLED SEGMENT, IGNORED FOR OVERLAY PROCESS
    SEGMENT: ?PR?DISABLE_I2CM_INTERRUPT?RA8876

*** WARNING L16: UNCALLED SEGMENT, IGNORED FOR OVERLAY PROCESS
    SEGMENT: ?PR?ENABLE_VSYNC_INTERRUPT?RA8876

*** WARNING L16: UNCALLED SEGMENT, IGNORED FOR OVERLAY PROCESS
    SEGMENT: ?PR?DISABLE_VSYNC_INTERRUPT?RA8876

*** WARNING L16: UNCALLED SEGMENT, IGNORED FOR OVERLAY PROCESS
    SEGMENT: ?PR?ENABLE_DMA_DRAW_BTE_INTERRUPT?RA8876

*** WARNING L16: UNCALLED SEGMENT, IGNORED FOR OVERLAY PROCESS
    SEGMENT: ?PR?DISABLE_DMA_DRAW_BTE_INTERRUPT?RA8876

*** WARNING L16: UNCALLED SEGMENT, IGNORED FOR OVERLAY PROCESS
    SEGMENT: ?PR?ENABLE_PWM1_INTERRUPT?RA8876

*** WARNING L16: UNCALLED SEGMENT, IGNORED FOR OVERLAY PROCESS
BL51 BANKED LINKER/LOCATER V6.22                                                      07/02/2019  17:10:49  PAGE 179


    SEGMENT: ?PR?DISABLE_PWM1_INTERRUPT?RA8876

*** WARNING L16: UNCALLED SEGMENT, IGNORED FOR OVERLAY PROCESS
    SEGMENT: ?PR?DISABLE_PWM0_INTERRUPT?RA8876

*** WARNING L16: UNCALLED SEGMENT, IGNORED FOR OVERLAY PROCESS
    SEGMENT: ?PR?READ_INTERRUPT_STATUS?RA8876

*** WARNING L16: UNCALLED SEGMENT, IGNORED FOR OVERLAY PROCESS
    SEGMENT: ?PR?CLEAR_RESUME_INTERRUPT_FLAG?RA8876

*** WARNING L16: UNCALLED SEGMENT, IGNORED FOR OVERLAY PROCESS
    SEGMENT: ?PR?CLEAR_EXTINTERRUPT_INPUT_FLAG?RA8876

*** WARNING L16: UNCALLED SEGMENT, IGNORED FOR OVERLAY PROCESS
    SEGMENT: ?PR?CLEAR_I2CM_INTERRUPT_FLAG?RA8876

*** WARNING L16: UNCALLED SEGMENT, IGNORED FOR OVERLAY PROCESS
    SEGMENT: ?PR?CLEAR_VSYNC_INTERRUPT_FLAG?RA8876

*** WARNING L16: UNCALLED SEGMENT, IGNORED FOR OVERLAY PROCESS
    SEGMENT: ?PR?CLEAR_DMA_DRAW_BTE_INTERRUPT_FLAG?RA8876

*** WARNING L16: UNCALLED SEGMENT, IGNORED FOR OVERLAY PROCESS
    SEGMENT: ?PR?CLEAR_PWM1_INTERRUPT_FLAG?RA8876

*** WARNING L16: UNCALLED SEGMENT, IGNORED FOR OVERLAY PROCESS
    SEGMENT: ?PR?MASK_RESUME_INTERRUPT_FLAG?RA8876

*** WARNING L16: UNCALLED SEGMENT, IGNORED FOR OVERLAY PROCESS
    SEGMENT: ?PR?MASK_EXTINTERRUPT_INPUT_FLAG?RA8876

*** WARNING L16: UNCALLED SEGMENT, IGNORED FOR OVERLAY PROCESS
    SEGMENT: ?PR?MASK_I2CM_INTERRUPT_FLAG?RA8876

*** WARNING L16: UNCALLED SEGMENT, IGNORED FOR OVERLAY PROCESS
    SEGMENT: ?PR?MASK_VSYNC_INTERRUPT_FLAG?RA8876

*** WARNING L16: UNCALLED SEGMENT, IGNORED FOR OVERLAY PROCESS
    SEGMENT: ?PR?MASK_DMA_DRAW_BTE_INTERRUPT_FLAG?RA8876

*** WARNING L16: UNCALLED SEGMENT, IGNORED FOR OVERLAY PROCESS
    SEGMENT: ?PR?MASK_PWM1_INTERRUPT_FLAG?RA8876

*** WARNING L16: UNCALLED SEGMENT, IGNORED FOR OVERLAY PROCESS
    SEGMENT: ?PR?ENABLE_RESUME_INTERRUPT_FLAG?RA8876

*** WARNING L16: UNCALLED SEGMENT, IGNORED FOR OVERLAY PROCESS
    SEGMENT: ?PR?ENABLE_EXTINTERRUPT_INPUR_FLAG?RA8876

*** WARNING L16: UNCALLED SEGMENT, IGNORED FOR OVERLAY PROCESS
    SEGMENT: ?PR?ENABLE_I2CM_INTERRUPT_FLAG?RA8876

*** WARNING L16: UNCALLED SEGMENT, IGNORED FOR OVERLAY PROCESS
    SEGMENT: ?PR?ENABLE_VSYNC_INTERRUPT_FLAG?RA8876

*** WARNING L16: UNCALLED SEGMENT, IGNORED FOR OVERLAY PROCESS
BL51 BANKED LINKER/LOCATER V6.22                                                      07/02/2019  17:10:49  PAGE 180


    SEGMENT: ?PR?ENABLE_DMA_DRAW_BTE_INTERRUPT_FLAG?RA8876

*** WARNING L16: UNCALLED SEGMENT, IGNORED FOR OVERLAY PROCESS
    SEGMENT: ?PR?ENABLE_PWM1_INTERRUPT_FLAG?RA8876

*** WARNING L16: UNCALLED SEGMENT, IGNORED FOR OVERLAY PROCESS
    SEGMENT: ?PR?ENABLE_PWM0_INTERRUPT_FLAG?RA8876

*** WARNING L16: UNCALLED SEGMENT, IGNORED FOR OVERLAY PROCESS
    SEGMENT: ?PR?ENABLE_XDB15_8_PULLUP?RA8876

*** WARNING L16: UNCALLED SEGMENT, IGNORED FOR OVERLAY PROCESS
    SEGMENT: ?PR?DISABLE_XDB15_8_PULLUP?RA8876

*** WARNING L16: UNCALLED SEGMENT, IGNORED FOR OVERLAY PROCESS
    SEGMENT: ?PR?DISABLE_XDB7_0_PULLUP?RA8876

*** WARNING L16: UNCALLED SEGMENT, IGNORED FOR OVERLAY PROCESS
    SEGMENT: ?PR?SELECT_MAIN_WINDOW_8BPP?RA8876

*** WARNING L16: UNCALLED SEGMENT, IGNORED FOR OVERLAY PROCESS
    SEGMENT: ?PR?SELECT_MAIN_WINDOW_24BPP?RA8876

*** WARNING L16: UNCALLED SEGMENT, IGNORED FOR OVERLAY PROCESS
    SEGMENT: ?PR?SELECT_PIP2_WINDOW_8BPP?RA8876

*** WARNING L16: UNCALLED SEGMENT, IGNORED FOR OVERLAY PROCESS
    SEGMENT: ?PR?SELECT_PIP2_WINDOW_24BPP?RA8876

*** WARNING L16: UNCALLED SEGMENT, IGNORED FOR OVERLAY PROCESS
    SEGMENT: ?PR?SELECT_PIP1_WINDOW_8BPP?RA8876

*** WARNING L16: UNCALLED SEGMENT, IGNORED FOR OVERLAY PROCESS
    SEGMENT: ?PR?SELECT_PIP1_WINDOW_24BPP?RA8876

*** WARNING L16: UNCALLED SEGMENT, IGNORED FOR OVERLAY PROCESS
    SEGMENT: ?PR?PCLK_RISING?RA8876

*** WARNING L16: UNCALLED SEGMENT, IGNORED FOR OVERLAY PROCESS
    SEGMENT: ?PR?DISPLAY_OFF?RA8876

*** WARNING L16: UNCALLED SEGMENT, IGNORED FOR OVERLAY PROCESS
    SEGMENT: ?PR?COLOR_BAR_ON?RA8876

*** WARNING L16: UNCALLED SEGMENT, IGNORED FOR OVERLAY PROCESS
    SEGMENT: ?PR?COLOR_BAR_OFF?RA8876

*** WARNING L16: UNCALLED SEGMENT, IGNORED FOR OVERLAY PROCESS
    SEGMENT: ?PR?HSCAN_R_TO_L?RA8876

*** WARNING L16: UNCALLED SEGMENT, IGNORED FOR OVERLAY PROCESS
    SEGMENT: ?PR?VSCAN_B_TO_T?RA8876

*** WARNING L16: UNCALLED SEGMENT, IGNORED FOR OVERLAY PROCESS
    SEGMENT: ?PR?PDATA_SET_RBG?RA8876

*** WARNING L16: UNCALLED SEGMENT, IGNORED FOR OVERLAY PROCESS
BL51 BANKED LINKER/LOCATER V6.22                                                      07/02/2019  17:10:49  PAGE 181


    SEGMENT: ?PR?PDATA_SET_GRB?RA8876

*** WARNING L16: UNCALLED SEGMENT, IGNORED FOR OVERLAY PROCESS
    SEGMENT: ?PR?PDATA_SET_GBR?RA8876

*** WARNING L16: UNCALLED SEGMENT, IGNORED FOR OVERLAY PROCESS
    SEGMENT: ?PR?PDATA_SET_BRG?RA8876

*** WARNING L16: UNCALLED SEGMENT, IGNORED FOR OVERLAY PROCESS
    SEGMENT: ?PR?PDATA_SET_BGR?RA8876

*** WARNING L16: UNCALLED SEGMENT, IGNORED FOR OVERLAY PROCESS
    SEGMENT: ?PR?PDATA_IDLE_STATE?RA8876

*** WARNING L16: UNCALLED SEGMENT, IGNORED FOR OVERLAY PROCESS
    SEGMENT: ?PR?HSYNC_LOW_ACTIVE?RA8876

*** WARNING L16: UNCALLED SEGMENT, IGNORED FOR OVERLAY PROCESS
    SEGMENT: ?PR?VSYNC_LOW_ACTIVE?RA8876

*** WARNING L16: UNCALLED SEGMENT, IGNORED FOR OVERLAY PROCESS
    SEGMENT: ?PR?DE_LOW_ACTIVE?RA8876

*** WARNING L16: UNCALLED SEGMENT, IGNORED FOR OVERLAY PROCESS
    SEGMENT: ?PR?IDLE_DE_LOW?RA8876

*** WARNING L16: UNCALLED SEGMENT, IGNORED FOR OVERLAY PROCESS
    SEGMENT: ?PR?IDLE_DE_HIGH?RA8876

*** WARNING L16: UNCALLED SEGMENT, IGNORED FOR OVERLAY PROCESS
    SEGMENT: ?PR?IDLE_PCLK_LOW?RA8876

*** WARNING L16: UNCALLED SEGMENT, IGNORED FOR OVERLAY PROCESS
    SEGMENT: ?PR?IDLE_PCLK_HIGH?RA8876

*** WARNING L16: UNCALLED SEGMENT, IGNORED FOR OVERLAY PROCESS
    SEGMENT: ?PR?IDLE_PDAT_LOW?RA8876

*** WARNING L16: UNCALLED SEGMENT, IGNORED FOR OVERLAY PROCESS
    SEGMENT: ?PR?IDLE_PDAT_HIGH?RA8876

*** WARNING L16: UNCALLED SEGMENT, IGNORED FOR OVERLAY PROCESS
    SEGMENT: ?PR?IDLE_HSYNC_LOW?RA8876

*** WARNING L16: UNCALLED SEGMENT, IGNORED FOR OVERLAY PROCESS
    SEGMENT: ?PR?IDLE_HSYNC_HIGH?RA8876

*** WARNING L16: UNCALLED SEGMENT, IGNORED FOR OVERLAY PROCESS
    SEGMENT: ?PR?IDLE_VSYNC_LOW?RA8876

*** WARNING L16: UNCALLED SEGMENT, IGNORED FOR OVERLAY PROCESS
    SEGMENT: ?PR?IDLE_VSYNC_HIGH?RA8876

*** WARNING L16: UNCALLED SEGMENT, IGNORED FOR OVERLAY PROCESS
    SEGMENT: ?PR?DISABLE_TEXT_CURSOR_BLINKING?RA8876

*** WARNING L16: UNCALLED SEGMENT, IGNORED FOR OVERLAY PROCESS
BL51 BANKED LINKER/LOCATER V6.22                                                      07/02/2019  17:10:49  PAGE 182


    SEGMENT: ?PR?SELECT_WRITE_DATA_POSITION?RA8876

*** WARNING L16: UNCALLED SEGMENT, IGNORED FOR OVERLAY PROCESS
    SEGMENT: ?PR?SELECT_READ_DATA_POSITION?RA8876

*** WARNING L16: UNCALLED SEGMENT, IGNORED FOR OVERLAY PROCESS
    SEGMENT: ?PR?MEMORY_LINEAR_MODE?RA8876

*** WARNING L16: UNCALLED SEGMENT, IGNORED FOR OVERLAY PROCESS
    SEGMENT: ?PR?MEMORY_8BPP_MODE?RA8876

*** WARNING L16: UNCALLED SEGMENT, IGNORED FOR OVERLAY PROCESS
    SEGMENT: ?PR?MEMORY_24BPP_MODE?RA8876

*** WARNING L16: UNCALLED SEGMENT, IGNORED FOR OVERLAY PROCESS
    SEGMENT: ?PR?_GOTO_LINEAR_ADDR?RA8876

*** WARNING L16: UNCALLED SEGMENT, IGNORED FOR OVERLAY PROCESS
    SEGMENT: ?PR?START_TRIANGLE_FILL?RA8876

*** WARNING L16: UNCALLED SEGMENT, IGNORED FOR OVERLAY PROCESS
    SEGMENT: ?PR?_SQUARE_START_XY?RA8876

*** WARNING L16: UNCALLED SEGMENT, IGNORED FOR OVERLAY PROCESS
    SEGMENT: ?PR?_SQUARE_END_XY?RA8876

*** WARNING L16: UNCALLED SEGMENT, IGNORED FOR OVERLAY PROCESS
    SEGMENT: ?PR?START_CIRCLE_OR_ELLIPSE_FILL?RA8876

*** WARNING L16: UNCALLED SEGMENT, IGNORED FOR OVERLAY PROCESS
    SEGMENT: ?PR?START_LEFT_DOWN_CURVE?RA8876

*** WARNING L16: UNCALLED SEGMENT, IGNORED FOR OVERLAY PROCESS
    SEGMENT: ?PR?START_LEFT_UP_CURVE?RA8876

*** WARNING L16: UNCALLED SEGMENT, IGNORED FOR OVERLAY PROCESS
    SEGMENT: ?PR?START_RIGHT_UP_CURVE?RA8876

*** WARNING L16: UNCALLED SEGMENT, IGNORED FOR OVERLAY PROCESS
    SEGMENT: ?PR?START_RIGHT_DOWN_CURVE?RA8876

*** WARNING L16: UNCALLED SEGMENT, IGNORED FOR OVERLAY PROCESS
    SEGMENT: ?PR?START_LEFT_DOWN_CURVE_FILL?RA8876

*** WARNING L16: UNCALLED SEGMENT, IGNORED FOR OVERLAY PROCESS
    SEGMENT: ?PR?START_LEFT_UP_CURVE_FILL?RA8876

*** WARNING L16: UNCALLED SEGMENT, IGNORED FOR OVERLAY PROCESS
    SEGMENT: ?PR?START_RIGHT_UP_CURVE_FILL?RA8876

*** WARNING L16: UNCALLED SEGMENT, IGNORED FOR OVERLAY PROCESS
    SEGMENT: ?PR?START_RIGHT_DOWN_CURVE_FILL?RA8876

*** WARNING L16: UNCALLED SEGMENT, IGNORED FOR OVERLAY PROCESS
    SEGMENT: ?PR?START_CIRCLE_SQUARE_FILL?RA8876

*** WARNING L16: UNCALLED SEGMENT, IGNORED FOR OVERLAY PROCESS
BL51 BANKED LINKER/LOCATER V6.22                                                      07/02/2019  17:10:49  PAGE 183


    SEGMENT: ?PR?_ELLIPSE_CENTER_XY?RA8876

*** WARNING L16: UNCALLED SEGMENT, IGNORED FOR OVERLAY PROCESS
    SEGMENT: ?PR?_SET_PWM_PRESCALER_1_TO_256?RA8876

*** WARNING L16: UNCALLED SEGMENT, IGNORED FOR OVERLAY PROCESS
    SEGMENT: ?PR?SELECT_PWM1_CLOCK_DIVIDED_BY_1?RA8876

*** WARNING L16: UNCALLED SEGMENT, IGNORED FOR OVERLAY PROCESS
    SEGMENT: ?PR?SELECT_PWM1_CLOCK_DIVIDED_BY_2?RA8876

*** WARNING L16: UNCALLED SEGMENT, IGNORED FOR OVERLAY PROCESS
    SEGMENT: ?PR?SELECT_PWM1_CLOCK_DIVIDED_BY_4?RA8876

*** WARNING L16: UNCALLED SEGMENT, IGNORED FOR OVERLAY PROCESS
    SEGMENT: ?PR?SELECT_PWM1_CLOCK_DIVIDED_BY_8?RA8876

*** WARNING L16: UNCALLED SEGMENT, IGNORED FOR OVERLAY PROCESS
    SEGMENT: ?PR?SELECT_PWM0_CLOCK_DIVIDED_BY_1?RA8876

*** WARNING L16: UNCALLED SEGMENT, IGNORED FOR OVERLAY PROCESS
    SEGMENT: ?PR?SELECT_PWM0_CLOCK_DIVIDED_BY_4?RA8876

*** WARNING L16: UNCALLED SEGMENT, IGNORED FOR OVERLAY PROCESS
    SEGMENT: ?PR?SELECT_PWM0_CLOCK_DIVIDED_BY_8?RA8876

*** WARNING L16: UNCALLED SEGMENT, IGNORED FOR OVERLAY PROCESS
    SEGMENT: ?PR?SELECT_PWM1_IS_ERRORFLAG?RA8876

*** WARNING L16: UNCALLED SEGMENT, IGNORED FOR OVERLAY PROCESS
    SEGMENT: ?PR?SELECT_PWM1?RA8876

*** WARNING L16: UNCALLED SEGMENT, IGNORED FOR OVERLAY PROCESS
    SEGMENT: ?PR?SELECT_PWM1_IS_OSC_CLOCK?RA8876

*** WARNING L16: UNCALLED SEGMENT, IGNORED FOR OVERLAY PROCESS
    SEGMENT: ?PR?SELECT_PWM0_IS_GPIO_C7?RA8876

*** WARNING L16: UNCALLED SEGMENT, IGNORED FOR OVERLAY PROCESS
    SEGMENT: ?PR?SELECT_PWM0_IS_CORE_CLOCK?RA8876

*** WARNING L16: UNCALLED SEGMENT, IGNORED FOR OVERLAY PROCESS
    SEGMENT: ?PR?ENABLE_PWM1_INVERTER?RA8876

*** WARNING L16: UNCALLED SEGMENT, IGNORED FOR OVERLAY PROCESS
    SEGMENT: ?PR?DISABLE_PWM1_INVERTER?RA8876

*** WARNING L16: UNCALLED SEGMENT, IGNORED FOR OVERLAY PROCESS
    SEGMENT: ?PR?AUTO_RELOAD_PWM1?RA8876

*** WARNING L16: UNCALLED SEGMENT, IGNORED FOR OVERLAY PROCESS
    SEGMENT: ?PR?ONE_SHOT_PWM1?RA8876

*** WARNING L16: UNCALLED SEGMENT, IGNORED FOR OVERLAY PROCESS
    SEGMENT: ?PR?START_PWM1?RA8876

*** WARNING L16: UNCALLED SEGMENT, IGNORED FOR OVERLAY PROCESS
BL51 BANKED LINKER/LOCATER V6.22                                                      07/02/2019  17:10:49  PAGE 184


    SEGMENT: ?PR?STOP_PWM1?RA8876

*** WARNING L16: UNCALLED SEGMENT, IGNORED FOR OVERLAY PROCESS
    SEGMENT: ?PR?DISABLE_PWM0_DEAD_ZONE?RA8876

*** WARNING L16: UNCALLED SEGMENT, IGNORED FOR OVERLAY PROCESS
    SEGMENT: ?PR?ENABLE_PWM0_INVERTER?RA8876

*** WARNING L16: UNCALLED SEGMENT, IGNORED FOR OVERLAY PROCESS
    SEGMENT: ?PR?DISABLE_PWM0_INVERTER?RA8876

*** WARNING L16: UNCALLED SEGMENT, IGNORED FOR OVERLAY PROCESS
    SEGMENT: ?PR?ONE_SHOT_PWM0?RA8876

*** WARNING L16: UNCALLED SEGMENT, IGNORED FOR OVERLAY PROCESS
    SEGMENT: ?PR?STOP_PWM0?RA8876

*** WARNING L16: UNCALLED SEGMENT, IGNORED FOR OVERLAY PROCESS
    SEGMENT: ?PR?_SET_TIMER0_DEAD_ZONE_LENGTH?RA8876

*** WARNING L16: UNCALLED SEGMENT, IGNORED FOR OVERLAY PROCESS
    SEGMENT: ?PR?_SET_TIMER0_COUNT_BUFFER?RA8876

*** WARNING L16: UNCALLED SEGMENT, IGNORED FOR OVERLAY PROCESS
    SEGMENT: ?PR?_SET_TIMER1_COMPARE_BUFFER?RA8876

*** WARNING L16: UNCALLED SEGMENT, IGNORED FOR OVERLAY PROCESS
    SEGMENT: ?PR?_SET_TIMER1_COUNT_BUFFER?RA8876

*** WARNING L16: UNCALLED SEGMENT, IGNORED FOR OVERLAY PROCESS
    SEGMENT: ?PR?BTE_DISABLE?RA8876

*** WARNING L16: UNCALLED SEGMENT, IGNORED FOR OVERLAY PROCESS
    SEGMENT: ?PR?PATTERN_FORMAT_8X8?RA8876

*** WARNING L16: UNCALLED SEGMENT, IGNORED FOR OVERLAY PROCESS
    SEGMENT: ?PR?BTE_S0_COLOR_8BPP?RA8876

*** WARNING L16: UNCALLED SEGMENT, IGNORED FOR OVERLAY PROCESS
    SEGMENT: ?PR?BTE_S0_COLOR_24BPP?RA8876

*** WARNING L16: UNCALLED SEGMENT, IGNORED FOR OVERLAY PROCESS
    SEGMENT: ?PR?BTE_S1_COLOR_8BPP?RA8876

*** WARNING L16: UNCALLED SEGMENT, IGNORED FOR OVERLAY PROCESS
    SEGMENT: ?PR?BTE_S1_COLOR_24BPP?RA8876

*** WARNING L16: UNCALLED SEGMENT, IGNORED FOR OVERLAY PROCESS
    SEGMENT: ?PR?BTE_S1_COLOR_CONSTANT?RA8876

*** WARNING L16: UNCALLED SEGMENT, IGNORED FOR OVERLAY PROCESS
    SEGMENT: ?PR?BTE_S1_COLOR_8BIT_ALPHA?RA8876

*** WARNING L16: UNCALLED SEGMENT, IGNORED FOR OVERLAY PROCESS
    SEGMENT: ?PR?BTE_S1_COLOR_16BIT_ALPHA?RA8876

*** WARNING L16: UNCALLED SEGMENT, IGNORED FOR OVERLAY PROCESS
BL51 BANKED LINKER/LOCATER V6.22                                                      07/02/2019  17:10:49  PAGE 185


    SEGMENT: ?PR?BTE_DESTINATION_COLOR_8BPP?RA8876

*** WARNING L16: UNCALLED SEGMENT, IGNORED FOR OVERLAY PROCESS
    SEGMENT: ?PR?BTE_DESTINATION_COLOR_24BPP?RA8876

*** WARNING L16: UNCALLED SEGMENT, IGNORED FOR OVERLAY PROCESS
    SEGMENT: ?PR?_S1_CONSTANT_COLOR_256?RA8876

*** WARNING L16: UNCALLED SEGMENT, IGNORED FOR OVERLAY PROCESS
    SEGMENT: ?PR?_S1_CONSTANT_COLOR_65K?RA8876

*** WARNING L16: UNCALLED SEGMENT, IGNORED FOR OVERLAY PROCESS
    SEGMENT: ?PR?_S1_CONSTANT_COLOR_16M?RA8876

*** WARNING L16: UNCALLED SEGMENT, IGNORED FOR OVERLAY PROCESS
    SEGMENT: ?PR?SELECT_SFI_32BIT_ADDRESS?RA8876

*** WARNING L16: UNCALLED SEGMENT, IGNORED FOR OVERLAY PROCESS
    SEGMENT: ?PR?SELECT_SFI_16_DUMMYREAD?RA8876

*** WARNING L16: UNCALLED SEGMENT, IGNORED FOR OVERLAY PROCESS
    SEGMENT: ?PR?SELECT_SFI_24_DUMMYREAD?RA8876

*** WARNING L16: UNCALLED SEGMENT, IGNORED FOR OVERLAY PROCESS
    SEGMENT: ?PR?SELECT_SFI_DUAL_MODE0?RA8876

*** WARNING L16: UNCALLED SEGMENT, IGNORED FOR OVERLAY PROCESS
    SEGMENT: ?PR?SELECT_SFI_DUAL_MODE1?RA8876

*** WARNING L16: UNCALLED SEGMENT, IGNORED FOR OVERLAY PROCESS
    SEGMENT: ?PR?_SPI_MASTER_FIFO_DATA_PUT?RA8876

*** WARNING L16: UNCALLED SEGMENT, IGNORED FOR OVERLAY PROCESS
    SEGMENT: ?PR?MASK_SPI_MASTER_INTERRUPT_FLAG?RA8876

*** WARNING L16: UNCALLED SEGMENT, IGNORED FOR OVERLAY PROCESS
    SEGMENT: ?PR?SELECT_NSS_DRIVE_ON_XNSFCS0?RA8876

*** WARNING L16: UNCALLED SEGMENT, IGNORED FOR OVERLAY PROCESS
    SEGMENT: ?PR?SELECT_NSS_DRIVE_ON_XNSFCS1?RA8876

*** WARNING L16: UNCALLED SEGMENT, IGNORED FOR OVERLAY PROCESS
    SEGMENT: ?PR?NSS_INACTIVE?RA8876

*** WARNING L16: UNCALLED SEGMENT, IGNORED FOR OVERLAY PROCESS
    SEGMENT: ?PR?NSS_ACTIVE?RA8876

*** WARNING L16: UNCALLED SEGMENT, IGNORED FOR OVERLAY PROCESS
    SEGMENT: ?PR?OVFIRQEN_ENABLE?RA8876

*** WARNING L16: UNCALLED SEGMENT, IGNORED FOR OVERLAY PROCESS
    SEGMENT: ?PR?EMTIRQEN_ENABLE?RA8876

*** WARNING L16: UNCALLED SEGMENT, IGNORED FOR OVERLAY PROCESS
    SEGMENT: ?PR?RESET_CPOL?RA8876

*** WARNING L16: UNCALLED SEGMENT, IGNORED FOR OVERLAY PROCESS
BL51 BANKED LINKER/LOCATER V6.22                                                      07/02/2019  17:10:49  PAGE 186


    SEGMENT: ?PR?SET_CPOL?RA8876

*** WARNING L16: UNCALLED SEGMENT, IGNORED FOR OVERLAY PROCESS
    SEGMENT: ?PR?RESET_CPHA?RA8876

*** WARNING L16: UNCALLED SEGMENT, IGNORED FOR OVERLAY PROCESS
    SEGMENT: ?PR?SET_CPHA?RA8876

*** WARNING L16: UNCALLED SEGMENT, IGNORED FOR OVERLAY PROCESS
    SEGMENT: ?PR?TX_FIFO_FULL_FLAG?RA8876

*** WARNING L16: UNCALLED SEGMENT, IGNORED FOR OVERLAY PROCESS
    SEGMENT: ?PR?RX_FIFO_FULL_FLAG?RA8876

*** WARNING L16: UNCALLED SEGMENT, IGNORED FOR OVERLAY PROCESS
    SEGMENT: ?PR?OVFI_FLAG?RA8876

*** WARNING L16: UNCALLED SEGMENT, IGNORED FOR OVERLAY PROCESS
    SEGMENT: ?PR?CLEAR_OVFI_FLAG?RA8876

*** WARNING L16: UNCALLED SEGMENT, IGNORED FOR OVERLAY PROCESS
    SEGMENT: ?PR?EMTI_FLAG?RA8876

*** WARNING L16: UNCALLED SEGMENT, IGNORED FOR OVERLAY PROCESS
    SEGMENT: ?PR?CLEAR_EMTI_FLAG?RA8876

*** WARNING L16: UNCALLED SEGMENT, IGNORED FOR OVERLAY PROCESS
    SEGMENT: ?PR?_SFI_DMA_DESTINATION_START_ADDRESS?RA8876

*** WARNING L16: UNCALLED SEGMENT, IGNORED FOR OVERLAY PROCESS
    SEGMENT: ?PR?_SFI_DMA_TRANSFER_NUMBER?RA8876

*** WARNING L16: UNCALLED SEGMENT, IGNORED FOR OVERLAY PROCESS
    SEGMENT: ?PR?FONT_SELECT_USERDEFINE_MODE?RA8876

*** WARNING L16: UNCALLED SEGMENT, IGNORED FOR OVERLAY PROCESS
    SEGMENT: ?PR?INTERNAL_CGROM_SELECT_ISOIEC8859_1?RA8876

*** WARNING L16: UNCALLED SEGMENT, IGNORED FOR OVERLAY PROCESS
    SEGMENT: ?PR?INTERNAL_CGROM_SELECT_ISOIEC8859_2?RA8876

*** WARNING L16: UNCALLED SEGMENT, IGNORED FOR OVERLAY PROCESS
    SEGMENT: ?PR?INTERNAL_CGROM_SELECT_ISOIEC8859_3?RA8876

*** WARNING L16: UNCALLED SEGMENT, IGNORED FOR OVERLAY PROCESS
    SEGMENT: ?PR?INTERNAL_CGROM_SELECT_ISOIEC8859_4?RA8876

*** WARNING L16: UNCALLED SEGMENT, IGNORED FOR OVERLAY PROCESS
    SEGMENT: ?PR?ENABLE_FONT_ALIGNMENT?RA8876

*** WARNING L16: UNCALLED SEGMENT, IGNORED FOR OVERLAY PROCESS
    SEGMENT: ?PR?DISABLE_FONT_ALIGNMENT?RA8876

*** WARNING L16: UNCALLED SEGMENT, IGNORED FOR OVERLAY PROCESS
    SEGMENT: ?PR?FONT_0_DEGREE?RA8876

*** WARNING L16: UNCALLED SEGMENT, IGNORED FOR OVERLAY PROCESS
BL51 BANKED LINKER/LOCATER V6.22                                                      07/02/2019  17:10:49  PAGE 187


    SEGMENT: ?PR?FONT_90_DEGREE?RA8876

*** WARNING L16: UNCALLED SEGMENT, IGNORED FOR OVERLAY PROCESS
    SEGMENT: ?PR?FONT_WIDTH_X2?RA8876

*** WARNING L16: UNCALLED SEGMENT, IGNORED FOR OVERLAY PROCESS
    SEGMENT: ?PR?FONT_WIDTH_X3?RA8876

*** WARNING L16: UNCALLED SEGMENT, IGNORED FOR OVERLAY PROCESS
    SEGMENT: ?PR?FONT_WIDTH_X4?RA8876

*** WARNING L16: UNCALLED SEGMENT, IGNORED FOR OVERLAY PROCESS
    SEGMENT: ?PR?FONT_HEIGHT_X2?RA8876

*** WARNING L16: UNCALLED SEGMENT, IGNORED FOR OVERLAY PROCESS
    SEGMENT: ?PR?FONT_HEIGHT_X3?RA8876

*** WARNING L16: UNCALLED SEGMENT, IGNORED FOR OVERLAY PROCESS
    SEGMENT: ?PR?FONT_HEIGHT_X4?RA8876

*** WARNING L16: UNCALLED SEGMENT, IGNORED FOR OVERLAY PROCESS
    SEGMENT: ?PR?GTFONT_SELECT_GT21L16TW_GT21H16T1W?RA8876

*** WARNING L16: UNCALLED SEGMENT, IGNORED FOR OVERLAY PROCESS
    SEGMENT: ?PR?GTFONT_SELECT_GT23L16U2W?RA8876

*** WARNING L16: UNCALLED SEGMENT, IGNORED FOR OVERLAY PROCESS
    SEGMENT: ?PR?GTFONT_SELECT_GT23L24M1Z?RA8876

*** WARNING L16: UNCALLED SEGMENT, IGNORED FOR OVERLAY PROCESS
    SEGMENT: ?PR?GTFONT_SELECT_GT23L32S4W_GT23H32S4W?RA8876

*** WARNING L16: UNCALLED SEGMENT, IGNORED FOR OVERLAY PROCESS
    SEGMENT: ?PR?GTFONT_SELECT_GT20L24F6Y?RA8876

*** WARNING L16: UNCALLED SEGMENT, IGNORED FOR OVERLAY PROCESS
    SEGMENT: ?PR?GTFONT_SELECT_GT21L24S1W?RA8876

*** WARNING L16: UNCALLED SEGMENT, IGNORED FOR OVERLAY PROCESS
    SEGMENT: ?PR?GTFONT_SELECT_GT22L16A1Y?RA8876

*** WARNING L16: UNCALLED SEGMENT, IGNORED FOR OVERLAY PROCESS
    SEGMENT: ?PR?_FONT_LINE_DISTANCE?RA8876

*** WARNING L16: UNCALLED SEGMENT, IGNORED FOR OVERLAY PROCESS
    SEGMENT: ?PR?_SET_FONT_TO_FONT_WIDTH?RA8876

*** WARNING L16: UNCALLED SEGMENT, IGNORED FOR OVERLAY PROCESS
    SEGMENT: ?PR?_FOREGROUND_RGB?RA8876

*** WARNING L16: UNCALLED SEGMENT, IGNORED FOR OVERLAY PROCESS
    SEGMENT: ?PR?_FOREGROUND_COLOR_256?RA8876

*** WARNING L16: UNCALLED SEGMENT, IGNORED FOR OVERLAY PROCESS
    SEGMENT: ?PR?_FOREGROUND_COLOR_16M?RA8876

*** WARNING L16: UNCALLED SEGMENT, IGNORED FOR OVERLAY PROCESS
BL51 BANKED LINKER/LOCATER V6.22                                                      07/02/2019  17:10:49  PAGE 188


    SEGMENT: ?PR?_BACKGROUND_RGB?RA8876

*** WARNING L16: UNCALLED SEGMENT, IGNORED FOR OVERLAY PROCESS
    SEGMENT: ?PR?_BACKGROUND_COLOR_256?RA8876

*** WARNING L16: UNCALLED SEGMENT, IGNORED FOR OVERLAY PROCESS
    SEGMENT: ?PR?_BACKGROUND_COLOR_16M?RA8876

*** WARNING L16: UNCALLED SEGMENT, IGNORED FOR OVERLAY PROCESS
    SEGMENT: ?PR?_CGRAM_START_ADDRESS?RA8876

*** WARNING L16: UNCALLED SEGMENT, IGNORED FOR OVERLAY PROCESS
    SEGMENT: ?PR?POWER_NORMAL_MODE?RA8876

*** WARNING L16: UNCALLED SEGMENT, IGNORED FOR OVERLAY PROCESS
    SEGMENT: ?PR?POWER_SAVING_STANDBY_MODE?RA8876

*** WARNING L16: UNCALLED SEGMENT, IGNORED FOR OVERLAY PROCESS
    SEGMENT: ?PR?POWER_SAVING_SUSPEND_MODE?RA8876

*** WARNING L16: UNCALLED SEGMENT, IGNORED FOR OVERLAY PROCESS
    SEGMENT: ?PR?POWER_SAVING_SLEEP_MODE?RA8876

*** WARNING L16: UNCALLED SEGMENT, IGNORED FOR OVERLAY PROCESS
    SEGMENT: ?PR?_RA8876_I2CM_CLOCK_PRESCALE?RA8876

*** WARNING L16: UNCALLED SEGMENT, IGNORED FOR OVERLAY PROCESS
    SEGMENT: ?PR?_RA8876_I2CM_TRANSMIT_DATA?RA8876

*** WARNING L16: UNCALLED SEGMENT, IGNORED FOR OVERLAY PROCESS
    SEGMENT: ?PR?RA8876_I2CM_RECEIVER_DATA?RA8876

*** WARNING L16: UNCALLED SEGMENT, IGNORED FOR OVERLAY PROCESS
    SEGMENT: ?PR?RA8876_I2CM_STOP?RA8876

*** WARNING L16: UNCALLED SEGMENT, IGNORED FOR OVERLAY PROCESS
    SEGMENT: ?PR?RA8876_I2CM_READ_WITH_ACK?RA8876

*** WARNING L16: UNCALLED SEGMENT, IGNORED FOR OVERLAY PROCESS
    SEGMENT: ?PR?RA8876_I2CM_READ_WITH_NACK?RA8876

*** WARNING L16: UNCALLED SEGMENT, IGNORED FOR OVERLAY PROCESS
    SEGMENT: ?PR?RA8876_I2CM_WRITE_WITH_START?RA8876

*** WARNING L16: UNCALLED SEGMENT, IGNORED FOR OVERLAY PROCESS
    SEGMENT: ?PR?RA8876_I2CM_WRITE?RA8876

*** WARNING L16: UNCALLED SEGMENT, IGNORED FOR OVERLAY PROCESS
    SEGMENT: ?PR?RA8876_I2CM_CHECK_SLAVE_ACK?RA8876

*** WARNING L16: UNCALLED SEGMENT, IGNORED FOR OVERLAY PROCESS
    SEGMENT: ?PR?RA8876_I2CM_BUS_BUSY?RA8876

*** WARNING L16: UNCALLED SEGMENT, IGNORED FOR OVERLAY PROCESS
    SEGMENT: ?PR?RA8876_I2CM_TRANSMIT_PROGRESS?RA8876

*** WARNING L16: UNCALLED SEGMENT, IGNORED FOR OVERLAY PROCESS
BL51 BANKED LINKER/LOCATER V6.22                                                      07/02/2019  17:10:49  PAGE 189


    SEGMENT: ?PR?RA8876_I2CM_ARBITRATION?RA8876

*** WARNING L16: UNCALLED SEGMENT, IGNORED FOR OVERLAY PROCESS
    SEGMENT: ?PR?_SET_GPIO_A_IN_OUT?RA8876

*** WARNING L16: UNCALLED SEGMENT, IGNORED FOR OVERLAY PROCESS
    SEGMENT: ?PR?_WRITE_GPIO_A_7_0?RA8876

*** WARNING L16: UNCALLED SEGMENT, IGNORED FOR OVERLAY PROCESS
    SEGMENT: ?PR?READ_GPIO_A_7_0?RA8876

*** WARNING L16: UNCALLED SEGMENT, IGNORED FOR OVERLAY PROCESS
    SEGMENT: ?PR?_WRITE_GPIO_B_7_4?RA8876

*** WARNING L16: UNCALLED SEGMENT, IGNORED FOR OVERLAY PROCESS
    SEGMENT: ?PR?READ_GPIO_B_7_0?RA8876

*** WARNING L16: UNCALLED SEGMENT, IGNORED FOR OVERLAY PROCESS
    SEGMENT: ?PR?_SET_GPIO_C_IN_OUT?RA8876

*** WARNING L16: UNCALLED SEGMENT, IGNORED FOR OVERLAY PROCESS
    SEGMENT: ?PR?_WRITE_GPIO_C_7_0?RA8876

*** WARNING L16: UNCALLED SEGMENT, IGNORED FOR OVERLAY PROCESS
    SEGMENT: ?PR?READ_GPIO_C_7_0?RA8876

*** WARNING L16: UNCALLED SEGMENT, IGNORED FOR OVERLAY PROCESS
    SEGMENT: ?PR?_SET_GPIO_D_IN_OUT?RA8876

*** WARNING L16: UNCALLED SEGMENT, IGNORED FOR OVERLAY PROCESS
    SEGMENT: ?PR?_WRITE_GPIO_D_7_0?RA8876

*** WARNING L16: UNCALLED SEGMENT, IGNORED FOR OVERLAY PROCESS
    SEGMENT: ?PR?READ_GPIO_D_7_0?RA8876

*** WARNING L16: UNCALLED SEGMENT, IGNORED FOR OVERLAY PROCESS
    SEGMENT: ?PR?_SET_GPIO_E_IN_OUT?RA8876

*** WARNING L16: UNCALLED SEGMENT, IGNORED FOR OVERLAY PROCESS
    SEGMENT: ?PR?_WRITE_GPIO_E_7_0?RA8876

*** WARNING L16: UNCALLED SEGMENT, IGNORED FOR OVERLAY PROCESS
    SEGMENT: ?PR?READ_GPIO_E_7_0?RA8876

*** WARNING L16: UNCALLED SEGMENT, IGNORED FOR OVERLAY PROCESS
    SEGMENT: ?PR?_SET_GPIO_F_IN_OUT?RA8876

*** WARNING L16: UNCALLED SEGMENT, IGNORED FOR OVERLAY PROCESS
    SEGMENT: ?PR?_WRITE_GPIO_F_7_0?RA8876

*** WARNING L16: UNCALLED SEGMENT, IGNORED FOR OVERLAY PROCESS
    SEGMENT: ?PR?READ_GPIO_F_7_0?RA8876

*** WARNING L16: UNCALLED SEGMENT, IGNORED FOR OVERLAY PROCESS
    SEGMENT: ?PR?_SDWRITEBLOCK?RA8876

Program Size: data=9.2 xdata=894 code=54758
BL51 BANKED LINKER/LOCATER V6.22                                                      07/02/2019  17:10:49  PAGE 190


LINK/LOCATE RUN COMPLETE.  260 WARNING(S),  0 ERROR(S)
